
rtarget:     file format elf64-x86-64


Disassembly of section .init:

0000000000400c60 <_init>:
  400c60:	48 83 ec 08          	sub    $0x8,%rsp
  400c64:	48 8b 05 8d 43 20 00 	mov    0x20438d(%rip),%rax        # 604ff8 <_DYNAMIC+0x1d0>
  400c6b:	48 85 c0             	test   %rax,%rax
  400c6e:	74 05                	je     400c75 <_init+0x15>
  400c70:	e8 2b 01 00 00       	callq  400da0 <__gmon_start__@plt>
  400c75:	48 83 c4 08          	add    $0x8,%rsp
  400c79:	c3                   	retq   

Disassembly of section .plt:

0000000000400c80 <strcasecmp@plt-0x10>:
  400c80:	ff 35 82 43 20 00    	pushq  0x204382(%rip)        # 605008 <_GLOBAL_OFFSET_TABLE_+0x8>
  400c86:	ff 25 84 43 20 00    	jmpq   *0x204384(%rip)        # 605010 <_GLOBAL_OFFSET_TABLE_+0x10>
  400c8c:	0f 1f 40 00          	nopl   0x0(%rax)

0000000000400c90 <strcasecmp@plt>:
  400c90:	ff 25 82 43 20 00    	jmpq   *0x204382(%rip)        # 605018 <_GLOBAL_OFFSET_TABLE_+0x18>
  400c96:	68 00 00 00 00       	pushq  $0x0
  400c9b:	e9 e0 ff ff ff       	jmpq   400c80 <_init+0x20>

0000000000400ca0 <__errno_location@plt>:
  400ca0:	ff 25 7a 43 20 00    	jmpq   *0x20437a(%rip)        # 605020 <_GLOBAL_OFFSET_TABLE_+0x20>
  400ca6:	68 01 00 00 00       	pushq  $0x1
  400cab:	e9 d0 ff ff ff       	jmpq   400c80 <_init+0x20>

0000000000400cb0 <srandom@plt>:
  400cb0:	ff 25 72 43 20 00    	jmpq   *0x204372(%rip)        # 605028 <_GLOBAL_OFFSET_TABLE_+0x28>
  400cb6:	68 02 00 00 00       	pushq  $0x2
  400cbb:	e9 c0 ff ff ff       	jmpq   400c80 <_init+0x20>

0000000000400cc0 <strncmp@plt>:
  400cc0:	ff 25 6a 43 20 00    	jmpq   *0x20436a(%rip)        # 605030 <_GLOBAL_OFFSET_TABLE_+0x30>
  400cc6:	68 03 00 00 00       	pushq  $0x3
  400ccb:	e9 b0 ff ff ff       	jmpq   400c80 <_init+0x20>

0000000000400cd0 <strcpy@plt>:
  400cd0:	ff 25 62 43 20 00    	jmpq   *0x204362(%rip)        # 605038 <_GLOBAL_OFFSET_TABLE_+0x38>
  400cd6:	68 04 00 00 00       	pushq  $0x4
  400cdb:	e9 a0 ff ff ff       	jmpq   400c80 <_init+0x20>

0000000000400ce0 <puts@plt>:
  400ce0:	ff 25 5a 43 20 00    	jmpq   *0x20435a(%rip)        # 605040 <_GLOBAL_OFFSET_TABLE_+0x40>
  400ce6:	68 05 00 00 00       	pushq  $0x5
  400ceb:	e9 90 ff ff ff       	jmpq   400c80 <_init+0x20>

0000000000400cf0 <write@plt>:
  400cf0:	ff 25 52 43 20 00    	jmpq   *0x204352(%rip)        # 605048 <_GLOBAL_OFFSET_TABLE_+0x48>
  400cf6:	68 06 00 00 00       	pushq  $0x6
  400cfb:	e9 80 ff ff ff       	jmpq   400c80 <_init+0x20>

0000000000400d00 <__stack_chk_fail@plt>:
  400d00:	ff 25 4a 43 20 00    	jmpq   *0x20434a(%rip)        # 605050 <_GLOBAL_OFFSET_TABLE_+0x50>
  400d06:	68 07 00 00 00       	pushq  $0x7
  400d0b:	e9 70 ff ff ff       	jmpq   400c80 <_init+0x20>

0000000000400d10 <mmap@plt>:
  400d10:	ff 25 42 43 20 00    	jmpq   *0x204342(%rip)        # 605058 <_GLOBAL_OFFSET_TABLE_+0x58>
  400d16:	68 08 00 00 00       	pushq  $0x8
  400d1b:	e9 60 ff ff ff       	jmpq   400c80 <_init+0x20>

0000000000400d20 <memset@plt>:
  400d20:	ff 25 3a 43 20 00    	jmpq   *0x20433a(%rip)        # 605060 <_GLOBAL_OFFSET_TABLE_+0x60>
  400d26:	68 09 00 00 00       	pushq  $0x9
  400d2b:	e9 50 ff ff ff       	jmpq   400c80 <_init+0x20>

0000000000400d30 <alarm@plt>:
  400d30:	ff 25 32 43 20 00    	jmpq   *0x204332(%rip)        # 605068 <_GLOBAL_OFFSET_TABLE_+0x68>
  400d36:	68 0a 00 00 00       	pushq  $0xa
  400d3b:	e9 40 ff ff ff       	jmpq   400c80 <_init+0x20>

0000000000400d40 <close@plt>:
  400d40:	ff 25 2a 43 20 00    	jmpq   *0x20432a(%rip)        # 605070 <_GLOBAL_OFFSET_TABLE_+0x70>
  400d46:	68 0b 00 00 00       	pushq  $0xb
  400d4b:	e9 30 ff ff ff       	jmpq   400c80 <_init+0x20>

0000000000400d50 <read@plt>:
  400d50:	ff 25 22 43 20 00    	jmpq   *0x204322(%rip)        # 605078 <_GLOBAL_OFFSET_TABLE_+0x78>
  400d56:	68 0c 00 00 00       	pushq  $0xc
  400d5b:	e9 20 ff ff ff       	jmpq   400c80 <_init+0x20>

0000000000400d60 <__libc_start_main@plt>:
  400d60:	ff 25 1a 43 20 00    	jmpq   *0x20431a(%rip)        # 605080 <_GLOBAL_OFFSET_TABLE_+0x80>
  400d66:	68 0d 00 00 00       	pushq  $0xd
  400d6b:	e9 10 ff ff ff       	jmpq   400c80 <_init+0x20>

0000000000400d70 <signal@plt>:
  400d70:	ff 25 12 43 20 00    	jmpq   *0x204312(%rip)        # 605088 <_GLOBAL_OFFSET_TABLE_+0x88>
  400d76:	68 0e 00 00 00       	pushq  $0xe
  400d7b:	e9 00 ff ff ff       	jmpq   400c80 <_init+0x20>

0000000000400d80 <gethostbyname@plt>:
  400d80:	ff 25 0a 43 20 00    	jmpq   *0x20430a(%rip)        # 605090 <_GLOBAL_OFFSET_TABLE_+0x90>
  400d86:	68 0f 00 00 00       	pushq  $0xf
  400d8b:	e9 f0 fe ff ff       	jmpq   400c80 <_init+0x20>

0000000000400d90 <__memmove_chk@plt>:
  400d90:	ff 25 02 43 20 00    	jmpq   *0x204302(%rip)        # 605098 <_GLOBAL_OFFSET_TABLE_+0x98>
  400d96:	68 10 00 00 00       	pushq  $0x10
  400d9b:	e9 e0 fe ff ff       	jmpq   400c80 <_init+0x20>

0000000000400da0 <__gmon_start__@plt>:
  400da0:	ff 25 fa 42 20 00    	jmpq   *0x2042fa(%rip)        # 6050a0 <_GLOBAL_OFFSET_TABLE_+0xa0>
  400da6:	68 11 00 00 00       	pushq  $0x11
  400dab:	e9 d0 fe ff ff       	jmpq   400c80 <_init+0x20>

0000000000400db0 <strtol@plt>:
  400db0:	ff 25 f2 42 20 00    	jmpq   *0x2042f2(%rip)        # 6050a8 <_GLOBAL_OFFSET_TABLE_+0xa8>
  400db6:	68 12 00 00 00       	pushq  $0x12
  400dbb:	e9 c0 fe ff ff       	jmpq   400c80 <_init+0x20>

0000000000400dc0 <memcpy@plt>:
  400dc0:	ff 25 ea 42 20 00    	jmpq   *0x2042ea(%rip)        # 6050b0 <_GLOBAL_OFFSET_TABLE_+0xb0>
  400dc6:	68 13 00 00 00       	pushq  $0x13
  400dcb:	e9 b0 fe ff ff       	jmpq   400c80 <_init+0x20>

0000000000400dd0 <time@plt>:
  400dd0:	ff 25 e2 42 20 00    	jmpq   *0x2042e2(%rip)        # 6050b8 <_GLOBAL_OFFSET_TABLE_+0xb8>
  400dd6:	68 14 00 00 00       	pushq  $0x14
  400ddb:	e9 a0 fe ff ff       	jmpq   400c80 <_init+0x20>

0000000000400de0 <random@plt>:
  400de0:	ff 25 da 42 20 00    	jmpq   *0x2042da(%rip)        # 6050c0 <_GLOBAL_OFFSET_TABLE_+0xc0>
  400de6:	68 15 00 00 00       	pushq  $0x15
  400deb:	e9 90 fe ff ff       	jmpq   400c80 <_init+0x20>

0000000000400df0 <_IO_getc@plt>:
  400df0:	ff 25 d2 42 20 00    	jmpq   *0x2042d2(%rip)        # 6050c8 <_GLOBAL_OFFSET_TABLE_+0xc8>
  400df6:	68 16 00 00 00       	pushq  $0x16
  400dfb:	e9 80 fe ff ff       	jmpq   400c80 <_init+0x20>

0000000000400e00 <__isoc99_sscanf@plt>:
  400e00:	ff 25 ca 42 20 00    	jmpq   *0x2042ca(%rip)        # 6050d0 <_GLOBAL_OFFSET_TABLE_+0xd0>
  400e06:	68 17 00 00 00       	pushq  $0x17
  400e0b:	e9 70 fe ff ff       	jmpq   400c80 <_init+0x20>

0000000000400e10 <munmap@plt>:
  400e10:	ff 25 c2 42 20 00    	jmpq   *0x2042c2(%rip)        # 6050d8 <_GLOBAL_OFFSET_TABLE_+0xd8>
  400e16:	68 18 00 00 00       	pushq  $0x18
  400e1b:	e9 60 fe ff ff       	jmpq   400c80 <_init+0x20>

0000000000400e20 <__printf_chk@plt>:
  400e20:	ff 25 ba 42 20 00    	jmpq   *0x2042ba(%rip)        # 6050e0 <_GLOBAL_OFFSET_TABLE_+0xe0>
  400e26:	68 19 00 00 00       	pushq  $0x19
  400e2b:	e9 50 fe ff ff       	jmpq   400c80 <_init+0x20>

0000000000400e30 <fopen@plt>:
  400e30:	ff 25 b2 42 20 00    	jmpq   *0x2042b2(%rip)        # 6050e8 <_GLOBAL_OFFSET_TABLE_+0xe8>
  400e36:	68 1a 00 00 00       	pushq  $0x1a
  400e3b:	e9 40 fe ff ff       	jmpq   400c80 <_init+0x20>

0000000000400e40 <getopt@plt>:
  400e40:	ff 25 aa 42 20 00    	jmpq   *0x2042aa(%rip)        # 6050f0 <_GLOBAL_OFFSET_TABLE_+0xf0>
  400e46:	68 1b 00 00 00       	pushq  $0x1b
  400e4b:	e9 30 fe ff ff       	jmpq   400c80 <_init+0x20>

0000000000400e50 <strtoul@plt>:
  400e50:	ff 25 a2 42 20 00    	jmpq   *0x2042a2(%rip)        # 6050f8 <_GLOBAL_OFFSET_TABLE_+0xf8>
  400e56:	68 1c 00 00 00       	pushq  $0x1c
  400e5b:	e9 20 fe ff ff       	jmpq   400c80 <_init+0x20>

0000000000400e60 <gethostname@plt>:
  400e60:	ff 25 9a 42 20 00    	jmpq   *0x20429a(%rip)        # 605100 <_GLOBAL_OFFSET_TABLE_+0x100>
  400e66:	68 1d 00 00 00       	pushq  $0x1d
  400e6b:	e9 10 fe ff ff       	jmpq   400c80 <_init+0x20>

0000000000400e70 <exit@plt>:
  400e70:	ff 25 92 42 20 00    	jmpq   *0x204292(%rip)        # 605108 <_GLOBAL_OFFSET_TABLE_+0x108>
  400e76:	68 1e 00 00 00       	pushq  $0x1e
  400e7b:	e9 00 fe ff ff       	jmpq   400c80 <_init+0x20>

0000000000400e80 <connect@plt>:
  400e80:	ff 25 8a 42 20 00    	jmpq   *0x20428a(%rip)        # 605110 <_GLOBAL_OFFSET_TABLE_+0x110>
  400e86:	68 1f 00 00 00       	pushq  $0x1f
  400e8b:	e9 f0 fd ff ff       	jmpq   400c80 <_init+0x20>

0000000000400e90 <__fprintf_chk@plt>:
  400e90:	ff 25 82 42 20 00    	jmpq   *0x204282(%rip)        # 605118 <_GLOBAL_OFFSET_TABLE_+0x118>
  400e96:	68 20 00 00 00       	pushq  $0x20
  400e9b:	e9 e0 fd ff ff       	jmpq   400c80 <_init+0x20>

0000000000400ea0 <__sprintf_chk@plt>:
  400ea0:	ff 25 7a 42 20 00    	jmpq   *0x20427a(%rip)        # 605120 <_GLOBAL_OFFSET_TABLE_+0x120>
  400ea6:	68 21 00 00 00       	pushq  $0x21
  400eab:	e9 d0 fd ff ff       	jmpq   400c80 <_init+0x20>

0000000000400eb0 <socket@plt>:
  400eb0:	ff 25 72 42 20 00    	jmpq   *0x204272(%rip)        # 605128 <_GLOBAL_OFFSET_TABLE_+0x128>
  400eb6:	68 22 00 00 00       	pushq  $0x22
  400ebb:	e9 c0 fd ff ff       	jmpq   400c80 <_init+0x20>

Disassembly of section .text:

0000000000400ec0 <_start>:
  400ec0:	31 ed                	xor    %ebp,%ebp
  400ec2:	49 89 d1             	mov    %rdx,%r9
  400ec5:	5e                   	pop    %rsi
  400ec6:	48 89 e2             	mov    %rsp,%rdx
  400ec9:	48 83 e4 f0          	and    $0xfffffffffffffff0,%rsp
  400ecd:	50                   	push   %rax
  400ece:	54                   	push   %rsp
  400ecf:	49 c7 c0 10 2f 40 00 	mov    $0x402f10,%r8
  400ed6:	48 c7 c1 a0 2e 40 00 	mov    $0x402ea0,%rcx
  400edd:	48 c7 c7 bf 11 40 00 	mov    $0x4011bf,%rdi
  400ee4:	e8 77 fe ff ff       	callq  400d60 <__libc_start_main@plt>
  400ee9:	f4                   	hlt    
  400eea:	66 0f 1f 44 00 00    	nopw   0x0(%rax,%rax,1)

0000000000400ef0 <deregister_tm_clones>:
  400ef0:	b8 b7 54 60 00       	mov    $0x6054b7,%eax
  400ef5:	55                   	push   %rbp
  400ef6:	48 2d b0 54 60 00    	sub    $0x6054b0,%rax
  400efc:	48 83 f8 0e          	cmp    $0xe,%rax
  400f00:	48 89 e5             	mov    %rsp,%rbp
  400f03:	77 02                	ja     400f07 <deregister_tm_clones+0x17>
  400f05:	5d                   	pop    %rbp
  400f06:	c3                   	retq   
  400f07:	b8 00 00 00 00       	mov    $0x0,%eax
  400f0c:	48 85 c0             	test   %rax,%rax
  400f0f:	74 f4                	je     400f05 <deregister_tm_clones+0x15>
  400f11:	5d                   	pop    %rbp
  400f12:	bf b0 54 60 00       	mov    $0x6054b0,%edi
  400f17:	ff e0                	jmpq   *%rax
  400f19:	0f 1f 80 00 00 00 00 	nopl   0x0(%rax)

0000000000400f20 <register_tm_clones>:
  400f20:	b8 b0 54 60 00       	mov    $0x6054b0,%eax
  400f25:	55                   	push   %rbp
  400f26:	48 2d b0 54 60 00    	sub    $0x6054b0,%rax
  400f2c:	48 c1 f8 03          	sar    $0x3,%rax
  400f30:	48 89 e5             	mov    %rsp,%rbp
  400f33:	48 89 c2             	mov    %rax,%rdx
  400f36:	48 c1 ea 3f          	shr    $0x3f,%rdx
  400f3a:	48 01 d0             	add    %rdx,%rax
  400f3d:	48 d1 f8             	sar    %rax
  400f40:	75 02                	jne    400f44 <register_tm_clones+0x24>
  400f42:	5d                   	pop    %rbp
  400f43:	c3                   	retq   
  400f44:	ba 00 00 00 00       	mov    $0x0,%edx
  400f49:	48 85 d2             	test   %rdx,%rdx
  400f4c:	74 f4                	je     400f42 <register_tm_clones+0x22>
  400f4e:	5d                   	pop    %rbp
  400f4f:	48 89 c6             	mov    %rax,%rsi
  400f52:	bf b0 54 60 00       	mov    $0x6054b0,%edi
  400f57:	ff e2                	jmpq   *%rdx
  400f59:	0f 1f 80 00 00 00 00 	nopl   0x0(%rax)

0000000000400f60 <__do_global_dtors_aux>:
  400f60:	80 3d 89 45 20 00 00 	cmpb   $0x0,0x204589(%rip)        # 6054f0 <completed.6982>
  400f67:	75 11                	jne    400f7a <__do_global_dtors_aux+0x1a>
  400f69:	55                   	push   %rbp
  400f6a:	48 89 e5             	mov    %rsp,%rbp
  400f6d:	e8 7e ff ff ff       	callq  400ef0 <deregister_tm_clones>
  400f72:	5d                   	pop    %rbp
  400f73:	c6 05 76 45 20 00 01 	movb   $0x1,0x204576(%rip)        # 6054f0 <completed.6982>
  400f7a:	f3 c3                	repz retq 
  400f7c:	0f 1f 40 00          	nopl   0x0(%rax)

0000000000400f80 <frame_dummy>:
  400f80:	48 83 3d 98 3e 20 00 	cmpq   $0x0,0x203e98(%rip)        # 604e20 <__JCR_END__>
  400f87:	00 
  400f88:	74 1e                	je     400fa8 <frame_dummy+0x28>
  400f8a:	b8 00 00 00 00       	mov    $0x0,%eax
  400f8f:	48 85 c0             	test   %rax,%rax
  400f92:	74 14                	je     400fa8 <frame_dummy+0x28>
  400f94:	55                   	push   %rbp
  400f95:	bf 20 4e 60 00       	mov    $0x604e20,%edi
  400f9a:	48 89 e5             	mov    %rsp,%rbp
  400f9d:	ff d0                	callq  *%rax
  400f9f:	5d                   	pop    %rbp
  400fa0:	e9 7b ff ff ff       	jmpq   400f20 <register_tm_clones>
  400fa5:	0f 1f 00             	nopl   (%rax)
  400fa8:	e9 73 ff ff ff       	jmpq   400f20 <register_tm_clones>
  400fad:	0f 1f 00             	nopl   (%rax)

0000000000400fb0 <usage>:
  400fb0:	48 83 ec 08          	sub    $0x8,%rsp
  400fb4:	48 89 fa             	mov    %rdi,%rdx
  400fb7:	83 3d 6a 45 20 00 00 	cmpl   $0x0,0x20456a(%rip)        # 605528 <is_checker>
  400fbe:	74 3e                	je     400ffe <usage+0x4e>
  400fc0:	be 28 2f 40 00       	mov    $0x402f28,%esi
  400fc5:	bf 01 00 00 00       	mov    $0x1,%edi
  400fca:	b8 00 00 00 00       	mov    $0x0,%eax
  400fcf:	e8 4c fe ff ff       	callq  400e20 <__printf_chk@plt>
  400fd4:	bf 60 2f 40 00       	mov    $0x402f60,%edi
  400fd9:	e8 02 fd ff ff       	callq  400ce0 <puts@plt>
  400fde:	bf d8 30 40 00       	mov    $0x4030d8,%edi
  400fe3:	e8 f8 fc ff ff       	callq  400ce0 <puts@plt>
  400fe8:	bf 88 2f 40 00       	mov    $0x402f88,%edi
  400fed:	e8 ee fc ff ff       	callq  400ce0 <puts@plt>
  400ff2:	bf f2 30 40 00       	mov    $0x4030f2,%edi
  400ff7:	e8 e4 fc ff ff       	callq  400ce0 <puts@plt>
  400ffc:	eb 32                	jmp    401030 <usage+0x80>
  400ffe:	be 0e 31 40 00       	mov    $0x40310e,%esi
  401003:	bf 01 00 00 00       	mov    $0x1,%edi
  401008:	b8 00 00 00 00       	mov    $0x0,%eax
  40100d:	e8 0e fe ff ff       	callq  400e20 <__printf_chk@plt>
  401012:	bf b0 2f 40 00       	mov    $0x402fb0,%edi
  401017:	e8 c4 fc ff ff       	callq  400ce0 <puts@plt>
  40101c:	bf d8 2f 40 00       	mov    $0x402fd8,%edi
  401021:	e8 ba fc ff ff       	callq  400ce0 <puts@plt>
  401026:	bf 2c 31 40 00       	mov    $0x40312c,%edi
  40102b:	e8 b0 fc ff ff       	callq  400ce0 <puts@plt>
  401030:	bf 00 00 00 00       	mov    $0x0,%edi
  401035:	e8 36 fe ff ff       	callq  400e70 <exit@plt>

000000000040103a <initialize_target>:
  40103a:	55                   	push   %rbp
  40103b:	53                   	push   %rbx
  40103c:	48 81 ec 18 21 00 00 	sub    $0x2118,%rsp
  401043:	89 f5                	mov    %esi,%ebp
  401045:	64 48 8b 04 25 28 00 	mov    %fs:0x28,%rax
  40104c:	00 00 
  40104e:	48 89 84 24 08 21 00 	mov    %rax,0x2108(%rsp)
  401055:	00 
  401056:	31 c0                	xor    %eax,%eax
  401058:	89 3d ba 44 20 00    	mov    %edi,0x2044ba(%rip)        # 605518 <check_level>
  40105e:	8b 3d 04 41 20 00    	mov    0x204104(%rip),%edi        # 605168 <target_id>
  401064:	e8 0a 1e 00 00       	callq  402e73 <gencookie>
  401069:	89 05 b5 44 20 00    	mov    %eax,0x2044b5(%rip)        # 605524 <cookie>
  40106f:	89 c7                	mov    %eax,%edi
  401071:	e8 fd 1d 00 00       	callq  402e73 <gencookie>
  401076:	89 05 a4 44 20 00    	mov    %eax,0x2044a4(%rip)        # 605520 <authkey>
  40107c:	8b 05 e6 40 20 00    	mov    0x2040e6(%rip),%eax        # 605168 <target_id>
  401082:	8d 78 01             	lea    0x1(%rax),%edi
  401085:	e8 26 fc ff ff       	callq  400cb0 <srandom@plt>
  40108a:	e8 51 fd ff ff       	callq  400de0 <random@plt>
  40108f:	89 c7                	mov    %eax,%edi
  401091:	e8 03 03 00 00       	callq  401399 <scramble>
  401096:	89 c3                	mov    %eax,%ebx
  401098:	85 ed                	test   %ebp,%ebp
  40109a:	74 18                	je     4010b4 <initialize_target+0x7a>
  40109c:	bf 00 00 00 00       	mov    $0x0,%edi
  4010a1:	e8 2a fd ff ff       	callq  400dd0 <time@plt>
  4010a6:	89 c7                	mov    %eax,%edi
  4010a8:	e8 03 fc ff ff       	callq  400cb0 <srandom@plt>
  4010ad:	e8 2e fd ff ff       	callq  400de0 <random@plt>
  4010b2:	eb 05                	jmp    4010b9 <initialize_target+0x7f>
  4010b4:	b8 00 00 00 00       	mov    $0x0,%eax
  4010b9:	01 c3                	add    %eax,%ebx
  4010bb:	0f b7 db             	movzwl %bx,%ebx
  4010be:	8d 04 dd 00 01 00 00 	lea    0x100(,%rbx,8),%eax
  4010c5:	89 c0                	mov    %eax,%eax
  4010c7:	48 89 05 d2 43 20 00 	mov    %rax,0x2043d2(%rip)        # 6054a0 <buf_offset>
  4010ce:	c6 05 73 50 20 00 72 	movb   $0x72,0x205073(%rip)        # 606148 <target_prefix>
  4010d5:	83 3d cc 43 20 00 00 	cmpl   $0x0,0x2043cc(%rip)        # 6054a8 <notify>
  4010dc:	0f 84 bb 00 00 00    	je     40119d <initialize_target+0x163>
  4010e2:	83 3d 3f 44 20 00 00 	cmpl   $0x0,0x20443f(%rip)        # 605528 <is_checker>
  4010e9:	0f 85 ae 00 00 00    	jne    40119d <initialize_target+0x163>
  4010ef:	be 00 01 00 00       	mov    $0x100,%esi
  4010f4:	48 89 e7             	mov    %rsp,%rdi
  4010f7:	e8 64 fd ff ff       	callq  400e60 <gethostname@plt>
  4010fc:	85 c0                	test   %eax,%eax
  4010fe:	74 25                	je     401125 <initialize_target+0xeb>
  401100:	bf 08 30 40 00       	mov    $0x403008,%edi
  401105:	e8 d6 fb ff ff       	callq  400ce0 <puts@plt>
  40110a:	bf 08 00 00 00       	mov    $0x8,%edi
  40110f:	e8 5c fd ff ff       	callq  400e70 <exit@plt>
  401114:	48 89 e6             	mov    %rsp,%rsi
  401117:	e8 74 fb ff ff       	callq  400c90 <strcasecmp@plt>
  40111c:	85 c0                	test   %eax,%eax
  40111e:	74 21                	je     401141 <initialize_target+0x107>
  401120:	83 c3 01             	add    $0x1,%ebx
  401123:	eb 05                	jmp    40112a <initialize_target+0xf0>
  401125:	bb 00 00 00 00       	mov    $0x0,%ebx
  40112a:	48 63 c3             	movslq %ebx,%rax
  40112d:	48 8b 3c c5 80 51 60 	mov    0x605180(,%rax,8),%rdi
  401134:	00 
  401135:	48 85 ff             	test   %rdi,%rdi
  401138:	75 da                	jne    401114 <initialize_target+0xda>
  40113a:	b8 00 00 00 00       	mov    $0x0,%eax
  40113f:	eb 05                	jmp    401146 <initialize_target+0x10c>
  401141:	b8 01 00 00 00       	mov    $0x1,%eax
  401146:	85 c0                	test   %eax,%eax
  401148:	75 1c                	jne    401166 <initialize_target+0x12c>
  40114a:	48 89 e2             	mov    %rsp,%rdx
  40114d:	be 40 30 40 00       	mov    $0x403040,%esi
  401152:	bf 01 00 00 00       	mov    $0x1,%edi
  401157:	e8 c4 fc ff ff       	callq  400e20 <__printf_chk@plt>
  40115c:	bf 08 00 00 00       	mov    $0x8,%edi
  401161:	e8 0a fd ff ff       	callq  400e70 <exit@plt>
  401166:	48 8d bc 24 00 01 00 	lea    0x100(%rsp),%rdi
  40116d:	00 
  40116e:	e8 68 1a 00 00       	callq  402bdb <init_driver>
  401173:	85 c0                	test   %eax,%eax
  401175:	79 26                	jns    40119d <initialize_target+0x163>
  401177:	48 8d 94 24 00 01 00 	lea    0x100(%rsp),%rdx
  40117e:	00 
  40117f:	be 80 30 40 00       	mov    $0x403080,%esi
  401184:	bf 01 00 00 00       	mov    $0x1,%edi
  401189:	b8 00 00 00 00       	mov    $0x0,%eax
  40118e:	e8 8d fc ff ff       	callq  400e20 <__printf_chk@plt>
  401193:	bf 08 00 00 00       	mov    $0x8,%edi
  401198:	e8 d3 fc ff ff       	callq  400e70 <exit@plt>
  40119d:	48 8b 84 24 08 21 00 	mov    0x2108(%rsp),%rax
  4011a4:	00 
  4011a5:	64 48 33 04 25 28 00 	xor    %fs:0x28,%rax
  4011ac:	00 00 
  4011ae:	74 05                	je     4011b5 <initialize_target+0x17b>
  4011b0:	e8 4b fb ff ff       	callq  400d00 <__stack_chk_fail@plt>
  4011b5:	48 81 c4 18 21 00 00 	add    $0x2118,%rsp
  4011bc:	5b                   	pop    %rbx
  4011bd:	5d                   	pop    %rbp
  4011be:	c3                   	retq   

00000000004011bf <main>:
  4011bf:	41 56                	push   %r14
  4011c1:	41 55                	push   %r13
  4011c3:	41 54                	push   %r12
  4011c5:	55                   	push   %rbp
  4011c6:	53                   	push   %rbx
  4011c7:	41 89 fc             	mov    %edi,%r12d
  4011ca:	48 89 f3             	mov    %rsi,%rbx
  4011cd:	be 4e 1f 40 00       	mov    $0x401f4e,%esi
  4011d2:	bf 0b 00 00 00       	mov    $0xb,%edi
  4011d7:	e8 94 fb ff ff       	callq  400d70 <signal@plt>
  4011dc:	be 00 1f 40 00       	mov    $0x401f00,%esi
  4011e1:	bf 07 00 00 00       	mov    $0x7,%edi
  4011e6:	e8 85 fb ff ff       	callq  400d70 <signal@plt>
  4011eb:	be 9c 1f 40 00       	mov    $0x401f9c,%esi
  4011f0:	bf 04 00 00 00       	mov    $0x4,%edi
  4011f5:	e8 76 fb ff ff       	callq  400d70 <signal@plt>
  4011fa:	83 3d 27 43 20 00 00 	cmpl   $0x0,0x204327(%rip)        # 605528 <is_checker>
  401201:	74 20                	je     401223 <main+0x64>
  401203:	be ea 1f 40 00       	mov    $0x401fea,%esi
  401208:	bf 0e 00 00 00       	mov    $0xe,%edi
  40120d:	e8 5e fb ff ff       	callq  400d70 <signal@plt>
  401212:	bf 05 00 00 00       	mov    $0x5,%edi
  401217:	e8 14 fb ff ff       	callq  400d30 <alarm@plt>
  40121c:	bd 4a 31 40 00       	mov    $0x40314a,%ebp
  401221:	eb 05                	jmp    401228 <main+0x69>
  401223:	bd 45 31 40 00       	mov    $0x403145,%ebp
  401228:	48 8b 05 91 42 20 00 	mov    0x204291(%rip),%rax        # 6054c0 <stdin@@GLIBC_2.2.5>
  40122f:	48 89 05 da 42 20 00 	mov    %rax,0x2042da(%rip)        # 605510 <infile>
  401236:	41 bd 00 00 00 00    	mov    $0x0,%r13d
  40123c:	41 be 00 00 00 00    	mov    $0x0,%r14d
  401242:	e9 c6 00 00 00       	jmpq   40130d <main+0x14e>
  401247:	83 e8 61             	sub    $0x61,%eax
  40124a:	3c 10                	cmp    $0x10,%al
  40124c:	0f 87 9c 00 00 00    	ja     4012ee <main+0x12f>
  401252:	0f b6 c0             	movzbl %al,%eax
  401255:	ff 24 c5 90 31 40 00 	jmpq   *0x403190(,%rax,8)
  40125c:	48 8b 3b             	mov    (%rbx),%rdi
  40125f:	e8 4c fd ff ff       	callq  400fb0 <usage>
  401264:	be 15 34 40 00       	mov    $0x403415,%esi
  401269:	48 8b 3d 70 42 20 00 	mov    0x204270(%rip),%rdi        # 6054e0 <optarg@@GLIBC_2.2.5>
  401270:	e8 bb fb ff ff       	callq  400e30 <fopen@plt>
  401275:	48 89 05 94 42 20 00 	mov    %rax,0x204294(%rip)        # 605510 <infile>
  40127c:	48 85 c0             	test   %rax,%rax
  40127f:	0f 85 88 00 00 00    	jne    40130d <main+0x14e>
  401285:	48 8b 0d 54 42 20 00 	mov    0x204254(%rip),%rcx        # 6054e0 <optarg@@GLIBC_2.2.5>
  40128c:	ba 52 31 40 00       	mov    $0x403152,%edx
  401291:	be 01 00 00 00       	mov    $0x1,%esi
  401296:	48 8b 3d 4b 42 20 00 	mov    0x20424b(%rip),%rdi        # 6054e8 <stderr@@GLIBC_2.2.5>
  40129d:	e8 ee fb ff ff       	callq  400e90 <__fprintf_chk@plt>
  4012a2:	b8 01 00 00 00       	mov    $0x1,%eax
  4012a7:	e9 e4 00 00 00       	jmpq   401390 <main+0x1d1>
  4012ac:	ba 10 00 00 00       	mov    $0x10,%edx
  4012b1:	be 00 00 00 00       	mov    $0x0,%esi
  4012b6:	48 8b 3d 23 42 20 00 	mov    0x204223(%rip),%rdi        # 6054e0 <optarg@@GLIBC_2.2.5>
  4012bd:	e8 8e fb ff ff       	callq  400e50 <strtoul@plt>
  4012c2:	41 89 c6             	mov    %eax,%r14d
  4012c5:	eb 46                	jmp    40130d <main+0x14e>
  4012c7:	ba 0a 00 00 00       	mov    $0xa,%edx
  4012cc:	be 00 00 00 00       	mov    $0x0,%esi
  4012d1:	48 8b 3d 08 42 20 00 	mov    0x204208(%rip),%rdi        # 6054e0 <optarg@@GLIBC_2.2.5>
  4012d8:	e8 d3 fa ff ff       	callq  400db0 <strtol@plt>
  4012dd:	41 89 c5             	mov    %eax,%r13d
  4012e0:	eb 2b                	jmp    40130d <main+0x14e>
  4012e2:	c7 05 bc 41 20 00 00 	movl   $0x0,0x2041bc(%rip)        # 6054a8 <notify>
  4012e9:	00 00 00 
  4012ec:	eb 1f                	jmp    40130d <main+0x14e>
  4012ee:	0f be d2             	movsbl %dl,%edx
  4012f1:	be 6f 31 40 00       	mov    $0x40316f,%esi
  4012f6:	bf 01 00 00 00       	mov    $0x1,%edi
  4012fb:	b8 00 00 00 00       	mov    $0x0,%eax
  401300:	e8 1b fb ff ff       	callq  400e20 <__printf_chk@plt>
  401305:	48 8b 3b             	mov    (%rbx),%rdi
  401308:	e8 a3 fc ff ff       	callq  400fb0 <usage>
  40130d:	48 89 ea             	mov    %rbp,%rdx
  401310:	48 89 de             	mov    %rbx,%rsi
  401313:	44 89 e7             	mov    %r12d,%edi
  401316:	e8 25 fb ff ff       	callq  400e40 <getopt@plt>
  40131b:	89 c2                	mov    %eax,%edx
  40131d:	3c ff                	cmp    $0xff,%al
  40131f:	0f 85 22 ff ff ff    	jne    401247 <main+0x88>
  401325:	be 01 00 00 00       	mov    $0x1,%esi
  40132a:	44 89 ef             	mov    %r13d,%edi
  40132d:	e8 08 fd ff ff       	callq  40103a <initialize_target>
  401332:	83 3d ef 41 20 00 00 	cmpl   $0x0,0x2041ef(%rip)        # 605528 <is_checker>
  401339:	74 2a                	je     401365 <main+0x1a6>
  40133b:	44 3b 35 de 41 20 00 	cmp    0x2041de(%rip),%r14d        # 605520 <authkey>
  401342:	74 21                	je     401365 <main+0x1a6>
  401344:	44 89 f2             	mov    %r14d,%edx
  401347:	be a8 30 40 00       	mov    $0x4030a8,%esi
  40134c:	bf 01 00 00 00       	mov    $0x1,%edi
  401351:	b8 00 00 00 00       	mov    $0x0,%eax
  401356:	e8 c5 fa ff ff       	callq  400e20 <__printf_chk@plt>
  40135b:	b8 00 00 00 00       	mov    $0x0,%eax
  401360:	e8 26 08 00 00       	callq  401b8b <check_fail>
  401365:	8b 15 b9 41 20 00    	mov    0x2041b9(%rip),%edx        # 605524 <cookie>
  40136b:	be 82 31 40 00       	mov    $0x403182,%esi
  401370:	bf 01 00 00 00       	mov    $0x1,%edi
  401375:	b8 00 00 00 00       	mov    $0x0,%eax
  40137a:	e8 a1 fa ff ff       	callq  400e20 <__printf_chk@plt>
  40137f:	48 8b 3d 1a 41 20 00 	mov    0x20411a(%rip),%rdi        # 6054a0 <buf_offset>
  401386:	e8 b2 0c 00 00       	callq  40203d <launch>
  40138b:	b8 00 00 00 00       	mov    $0x0,%eax
  401390:	5b                   	pop    %rbx
  401391:	5d                   	pop    %rbp
  401392:	41 5c                	pop    %r12
  401394:	41 5d                	pop    %r13
  401396:	41 5e                	pop    %r14
  401398:	c3                   	retq   

0000000000401399 <scramble>:
  401399:	b8 00 00 00 00       	mov    $0x0,%eax
  40139e:	eb 11                	jmp    4013b1 <scramble+0x18>
  4013a0:	69 c8 18 af 00 00    	imul   $0xaf18,%eax,%ecx
  4013a6:	01 f9                	add    %edi,%ecx
  4013a8:	89 c2                	mov    %eax,%edx
  4013aa:	89 4c 94 c8          	mov    %ecx,-0x38(%rsp,%rdx,4)
  4013ae:	83 c0 01             	add    $0x1,%eax
  4013b1:	83 f8 09             	cmp    $0x9,%eax
  4013b4:	76 ea                	jbe    4013a0 <scramble+0x7>
  4013b6:	8b 44 24 e0          	mov    -0x20(%rsp),%eax
  4013ba:	69 c0 82 c0 00 00    	imul   $0xc082,%eax,%eax
  4013c0:	89 44 24 e0          	mov    %eax,-0x20(%rsp)
  4013c4:	8b 44 24 dc          	mov    -0x24(%rsp),%eax
  4013c8:	69 c0 da f6 00 00    	imul   $0xf6da,%eax,%eax
  4013ce:	89 44 24 dc          	mov    %eax,-0x24(%rsp)
  4013d2:	8b 44 24 d0          	mov    -0x30(%rsp),%eax
  4013d6:	69 c0 63 63 00 00    	imul   $0x6363,%eax,%eax
  4013dc:	89 44 24 d0          	mov    %eax,-0x30(%rsp)
  4013e0:	8b 44 24 c8          	mov    -0x38(%rsp),%eax
  4013e4:	69 c0 f8 14 00 00    	imul   $0x14f8,%eax,%eax
  4013ea:	89 44 24 c8          	mov    %eax,-0x38(%rsp)
  4013ee:	8b 44 24 c8          	mov    -0x38(%rsp),%eax
  4013f2:	69 c0 52 da 00 00    	imul   $0xda52,%eax,%eax
  4013f8:	89 44 24 c8          	mov    %eax,-0x38(%rsp)
  4013fc:	8b 44 24 d8          	mov    -0x28(%rsp),%eax
  401400:	69 c0 46 82 00 00    	imul   $0x8246,%eax,%eax
  401406:	89 44 24 d8          	mov    %eax,-0x28(%rsp)
  40140a:	8b 44 24 ec          	mov    -0x14(%rsp),%eax
  40140e:	69 c0 34 c5 00 00    	imul   $0xc534,%eax,%eax
  401414:	89 44 24 ec          	mov    %eax,-0x14(%rsp)
  401418:	8b 44 24 cc          	mov    -0x34(%rsp),%eax
  40141c:	69 c0 07 35 00 00    	imul   $0x3507,%eax,%eax
  401422:	89 44 24 cc          	mov    %eax,-0x34(%rsp)
  401426:	8b 44 24 e0          	mov    -0x20(%rsp),%eax
  40142a:	69 c0 e0 80 00 00    	imul   $0x80e0,%eax,%eax
  401430:	89 44 24 e0          	mov    %eax,-0x20(%rsp)
  401434:	8b 44 24 e8          	mov    -0x18(%rsp),%eax
  401438:	69 c0 1a e0 00 00    	imul   $0xe01a,%eax,%eax
  40143e:	89 44 24 e8          	mov    %eax,-0x18(%rsp)
  401442:	8b 44 24 c8          	mov    -0x38(%rsp),%eax
  401446:	69 c0 9e 7e 00 00    	imul   $0x7e9e,%eax,%eax
  40144c:	89 44 24 c8          	mov    %eax,-0x38(%rsp)
  401450:	8b 44 24 d8          	mov    -0x28(%rsp),%eax
  401454:	69 c0 69 97 00 00    	imul   $0x9769,%eax,%eax
  40145a:	89 44 24 d8          	mov    %eax,-0x28(%rsp)
  40145e:	8b 44 24 d0          	mov    -0x30(%rsp),%eax
  401462:	69 c0 d5 da 00 00    	imul   $0xdad5,%eax,%eax
  401468:	89 44 24 d0          	mov    %eax,-0x30(%rsp)
  40146c:	8b 44 24 e4          	mov    -0x1c(%rsp),%eax
  401470:	69 c0 e8 f6 00 00    	imul   $0xf6e8,%eax,%eax
  401476:	89 44 24 e4          	mov    %eax,-0x1c(%rsp)
  40147a:	8b 44 24 d4          	mov    -0x2c(%rsp),%eax
  40147e:	69 c0 11 e1 00 00    	imul   $0xe111,%eax,%eax
  401484:	89 44 24 d4          	mov    %eax,-0x2c(%rsp)
  401488:	8b 44 24 c8          	mov    -0x38(%rsp),%eax
  40148c:	69 c0 78 5c 00 00    	imul   $0x5c78,%eax,%eax
  401492:	89 44 24 c8          	mov    %eax,-0x38(%rsp)
  401496:	8b 44 24 d0          	mov    -0x30(%rsp),%eax
  40149a:	69 c0 0d 6e 00 00    	imul   $0x6e0d,%eax,%eax
  4014a0:	89 44 24 d0          	mov    %eax,-0x30(%rsp)
  4014a4:	8b 44 24 c8          	mov    -0x38(%rsp),%eax
  4014a8:	69 c0 4b 75 00 00    	imul   $0x754b,%eax,%eax
  4014ae:	89 44 24 c8          	mov    %eax,-0x38(%rsp)
  4014b2:	8b 44 24 d8          	mov    -0x28(%rsp),%eax
  4014b6:	69 c0 b3 6b 00 00    	imul   $0x6bb3,%eax,%eax
  4014bc:	89 44 24 d8          	mov    %eax,-0x28(%rsp)
  4014c0:	8b 44 24 e4          	mov    -0x1c(%rsp),%eax
  4014c4:	69 c0 be 13 00 00    	imul   $0x13be,%eax,%eax
  4014ca:	89 44 24 e4          	mov    %eax,-0x1c(%rsp)
  4014ce:	8b 44 24 d0          	mov    -0x30(%rsp),%eax
  4014d2:	69 c0 86 c0 00 00    	imul   $0xc086,%eax,%eax
  4014d8:	89 44 24 d0          	mov    %eax,-0x30(%rsp)
  4014dc:	8b 44 24 c8          	mov    -0x38(%rsp),%eax
  4014e0:	69 c0 f9 05 00 00    	imul   $0x5f9,%eax,%eax
  4014e6:	89 44 24 c8          	mov    %eax,-0x38(%rsp)
  4014ea:	8b 44 24 ec          	mov    -0x14(%rsp),%eax
  4014ee:	69 c0 84 e2 00 00    	imul   $0xe284,%eax,%eax
  4014f4:	89 44 24 ec          	mov    %eax,-0x14(%rsp)
  4014f8:	8b 44 24 d8          	mov    -0x28(%rsp),%eax
  4014fc:	69 c0 19 32 00 00    	imul   $0x3219,%eax,%eax
  401502:	89 44 24 d8          	mov    %eax,-0x28(%rsp)
  401506:	8b 44 24 d4          	mov    -0x2c(%rsp),%eax
  40150a:	69 c0 6b 0e 00 00    	imul   $0xe6b,%eax,%eax
  401510:	89 44 24 d4          	mov    %eax,-0x2c(%rsp)
  401514:	8b 44 24 dc          	mov    -0x24(%rsp),%eax
  401518:	69 c0 b4 48 00 00    	imul   $0x48b4,%eax,%eax
  40151e:	89 44 24 dc          	mov    %eax,-0x24(%rsp)
  401522:	8b 44 24 ec          	mov    -0x14(%rsp),%eax
  401526:	69 c0 b6 74 00 00    	imul   $0x74b6,%eax,%eax
  40152c:	89 44 24 ec          	mov    %eax,-0x14(%rsp)
  401530:	8b 44 24 ec          	mov    -0x14(%rsp),%eax
  401534:	69 c0 13 de 00 00    	imul   $0xde13,%eax,%eax
  40153a:	89 44 24 ec          	mov    %eax,-0x14(%rsp)
  40153e:	8b 44 24 e8          	mov    -0x18(%rsp),%eax
  401542:	69 c0 a0 c1 00 00    	imul   $0xc1a0,%eax,%eax
  401548:	89 44 24 e8          	mov    %eax,-0x18(%rsp)
  40154c:	8b 44 24 dc          	mov    -0x24(%rsp),%eax
  401550:	69 c0 ea fc 00 00    	imul   $0xfcea,%eax,%eax
  401556:	89 44 24 dc          	mov    %eax,-0x24(%rsp)
  40155a:	8b 44 24 d0          	mov    -0x30(%rsp),%eax
  40155e:	69 c0 5f 69 00 00    	imul   $0x695f,%eax,%eax
  401564:	89 44 24 d0          	mov    %eax,-0x30(%rsp)
  401568:	8b 44 24 cc          	mov    -0x34(%rsp),%eax
  40156c:	69 c0 45 44 00 00    	imul   $0x4445,%eax,%eax
  401572:	89 44 24 cc          	mov    %eax,-0x34(%rsp)
  401576:	8b 44 24 dc          	mov    -0x24(%rsp),%eax
  40157a:	69 c0 b5 ac 00 00    	imul   $0xacb5,%eax,%eax
  401580:	89 44 24 dc          	mov    %eax,-0x24(%rsp)
  401584:	8b 44 24 d0          	mov    -0x30(%rsp),%eax
  401588:	69 c0 dd a8 00 00    	imul   $0xa8dd,%eax,%eax
  40158e:	89 44 24 d0          	mov    %eax,-0x30(%rsp)
  401592:	8b 44 24 e8          	mov    -0x18(%rsp),%eax
  401596:	69 c0 d5 43 00 00    	imul   $0x43d5,%eax,%eax
  40159c:	89 44 24 e8          	mov    %eax,-0x18(%rsp)
  4015a0:	8b 44 24 e4          	mov    -0x1c(%rsp),%eax
  4015a4:	69 c0 6d 5e 00 00    	imul   $0x5e6d,%eax,%eax
  4015aa:	89 44 24 e4          	mov    %eax,-0x1c(%rsp)
  4015ae:	8b 44 24 d0          	mov    -0x30(%rsp),%eax
  4015b2:	69 c0 a0 52 00 00    	imul   $0x52a0,%eax,%eax
  4015b8:	89 44 24 d0          	mov    %eax,-0x30(%rsp)
  4015bc:	8b 44 24 d8          	mov    -0x28(%rsp),%eax
  4015c0:	69 c0 15 8a 00 00    	imul   $0x8a15,%eax,%eax
  4015c6:	89 44 24 d8          	mov    %eax,-0x28(%rsp)
  4015ca:	8b 44 24 d4          	mov    -0x2c(%rsp),%eax
  4015ce:	69 c0 67 9f 00 00    	imul   $0x9f67,%eax,%eax
  4015d4:	89 44 24 d4          	mov    %eax,-0x2c(%rsp)
  4015d8:	8b 44 24 e8          	mov    -0x18(%rsp),%eax
  4015dc:	69 c0 88 98 00 00    	imul   $0x9888,%eax,%eax
  4015e2:	89 44 24 e8          	mov    %eax,-0x18(%rsp)
  4015e6:	8b 44 24 e0          	mov    -0x20(%rsp),%eax
  4015ea:	69 c0 62 ce 00 00    	imul   $0xce62,%eax,%eax
  4015f0:	89 44 24 e0          	mov    %eax,-0x20(%rsp)
  4015f4:	8b 44 24 d0          	mov    -0x30(%rsp),%eax
  4015f8:	69 c0 db 3a 00 00    	imul   $0x3adb,%eax,%eax
  4015fe:	89 44 24 d0          	mov    %eax,-0x30(%rsp)
  401602:	8b 44 24 e4          	mov    -0x1c(%rsp),%eax
  401606:	69 c0 5a c1 00 00    	imul   $0xc15a,%eax,%eax
  40160c:	89 44 24 e4          	mov    %eax,-0x1c(%rsp)
  401610:	8b 44 24 e8          	mov    -0x18(%rsp),%eax
  401614:	69 c0 a3 92 00 00    	imul   $0x92a3,%eax,%eax
  40161a:	89 44 24 e8          	mov    %eax,-0x18(%rsp)
  40161e:	8b 44 24 d8          	mov    -0x28(%rsp),%eax
  401622:	69 c0 eb ed 00 00    	imul   $0xedeb,%eax,%eax
  401628:	89 44 24 d8          	mov    %eax,-0x28(%rsp)
  40162c:	8b 44 24 e8          	mov    -0x18(%rsp),%eax
  401630:	69 c0 ab 25 00 00    	imul   $0x25ab,%eax,%eax
  401636:	89 44 24 e8          	mov    %eax,-0x18(%rsp)
  40163a:	8b 44 24 dc          	mov    -0x24(%rsp),%eax
  40163e:	69 c0 f0 e8 00 00    	imul   $0xe8f0,%eax,%eax
  401644:	89 44 24 dc          	mov    %eax,-0x24(%rsp)
  401648:	8b 44 24 dc          	mov    -0x24(%rsp),%eax
  40164c:	69 c0 b7 2e 00 00    	imul   $0x2eb7,%eax,%eax
  401652:	89 44 24 dc          	mov    %eax,-0x24(%rsp)
  401656:	8b 44 24 e4          	mov    -0x1c(%rsp),%eax
  40165a:	69 c0 82 23 00 00    	imul   $0x2382,%eax,%eax
  401660:	89 44 24 e4          	mov    %eax,-0x1c(%rsp)
  401664:	8b 44 24 d4          	mov    -0x2c(%rsp),%eax
  401668:	69 c0 0d ae 00 00    	imul   $0xae0d,%eax,%eax
  40166e:	89 44 24 d4          	mov    %eax,-0x2c(%rsp)
  401672:	8b 44 24 e8          	mov    -0x18(%rsp),%eax
  401676:	69 c0 31 94 00 00    	imul   $0x9431,%eax,%eax
  40167c:	89 44 24 e8          	mov    %eax,-0x18(%rsp)
  401680:	8b 44 24 dc          	mov    -0x24(%rsp),%eax
  401684:	69 c0 b2 6b 00 00    	imul   $0x6bb2,%eax,%eax
  40168a:	89 44 24 dc          	mov    %eax,-0x24(%rsp)
  40168e:	8b 44 24 d4          	mov    -0x2c(%rsp),%eax
  401692:	69 c0 e1 70 00 00    	imul   $0x70e1,%eax,%eax
  401698:	89 44 24 d4          	mov    %eax,-0x2c(%rsp)
  40169c:	8b 44 24 e0          	mov    -0x20(%rsp),%eax
  4016a0:	69 c0 f6 1b 00 00    	imul   $0x1bf6,%eax,%eax
  4016a6:	89 44 24 e0          	mov    %eax,-0x20(%rsp)
  4016aa:	8b 44 24 d8          	mov    -0x28(%rsp),%eax
  4016ae:	69 c0 f6 b1 00 00    	imul   $0xb1f6,%eax,%eax
  4016b4:	89 44 24 d8          	mov    %eax,-0x28(%rsp)
  4016b8:	8b 44 24 dc          	mov    -0x24(%rsp),%eax
  4016bc:	69 c0 1b be 00 00    	imul   $0xbe1b,%eax,%eax
  4016c2:	89 44 24 dc          	mov    %eax,-0x24(%rsp)
  4016c6:	8b 44 24 d0          	mov    -0x30(%rsp),%eax
  4016ca:	69 c0 bb 95 00 00    	imul   $0x95bb,%eax,%eax
  4016d0:	89 44 24 d0          	mov    %eax,-0x30(%rsp)
  4016d4:	8b 44 24 e4          	mov    -0x1c(%rsp),%eax
  4016d8:	69 c0 71 c3 00 00    	imul   $0xc371,%eax,%eax
  4016de:	89 44 24 e4          	mov    %eax,-0x1c(%rsp)
  4016e2:	8b 44 24 d4          	mov    -0x2c(%rsp),%eax
  4016e6:	69 c0 e5 11 00 00    	imul   $0x11e5,%eax,%eax
  4016ec:	89 44 24 d4          	mov    %eax,-0x2c(%rsp)
  4016f0:	8b 44 24 e8          	mov    -0x18(%rsp),%eax
  4016f4:	69 c0 0f da 00 00    	imul   $0xda0f,%eax,%eax
  4016fa:	89 44 24 e8          	mov    %eax,-0x18(%rsp)
  4016fe:	8b 44 24 d0          	mov    -0x30(%rsp),%eax
  401702:	69 c0 a3 e5 00 00    	imul   $0xe5a3,%eax,%eax
  401708:	89 44 24 d0          	mov    %eax,-0x30(%rsp)
  40170c:	8b 44 24 dc          	mov    -0x24(%rsp),%eax
  401710:	69 c0 1b 57 00 00    	imul   $0x571b,%eax,%eax
  401716:	89 44 24 dc          	mov    %eax,-0x24(%rsp)
  40171a:	8b 44 24 c8          	mov    -0x38(%rsp),%eax
  40171e:	69 c0 ab 69 00 00    	imul   $0x69ab,%eax,%eax
  401724:	89 44 24 c8          	mov    %eax,-0x38(%rsp)
  401728:	8b 44 24 ec          	mov    -0x14(%rsp),%eax
  40172c:	69 c0 39 64 00 00    	imul   $0x6439,%eax,%eax
  401732:	89 44 24 ec          	mov    %eax,-0x14(%rsp)
  401736:	8b 44 24 c8          	mov    -0x38(%rsp),%eax
  40173a:	69 c0 67 5d 00 00    	imul   $0x5d67,%eax,%eax
  401740:	89 44 24 c8          	mov    %eax,-0x38(%rsp)
  401744:	8b 44 24 d0          	mov    -0x30(%rsp),%eax
  401748:	69 c0 84 f4 00 00    	imul   $0xf484,%eax,%eax
  40174e:	89 44 24 d0          	mov    %eax,-0x30(%rsp)
  401752:	8b 44 24 e0          	mov    -0x20(%rsp),%eax
  401756:	69 c0 c1 1e 00 00    	imul   $0x1ec1,%eax,%eax
  40175c:	89 44 24 e0          	mov    %eax,-0x20(%rsp)
  401760:	8b 44 24 d8          	mov    -0x28(%rsp),%eax
  401764:	69 c0 6a d8 00 00    	imul   $0xd86a,%eax,%eax
  40176a:	89 44 24 d8          	mov    %eax,-0x28(%rsp)
  40176e:	8b 44 24 d0          	mov    -0x30(%rsp),%eax
  401772:	69 c0 fe 55 00 00    	imul   $0x55fe,%eax,%eax
  401778:	89 44 24 d0          	mov    %eax,-0x30(%rsp)
  40177c:	8b 44 24 e8          	mov    -0x18(%rsp),%eax
  401780:	69 c0 ea 9f 00 00    	imul   $0x9fea,%eax,%eax
  401786:	89 44 24 e8          	mov    %eax,-0x18(%rsp)
  40178a:	8b 44 24 e4          	mov    -0x1c(%rsp),%eax
  40178e:	69 c0 de a8 00 00    	imul   $0xa8de,%eax,%eax
  401794:	89 44 24 e4          	mov    %eax,-0x1c(%rsp)
  401798:	8b 44 24 e4          	mov    -0x1c(%rsp),%eax
  40179c:	69 c0 4d 88 00 00    	imul   $0x884d,%eax,%eax
  4017a2:	89 44 24 e4          	mov    %eax,-0x1c(%rsp)
  4017a6:	8b 44 24 dc          	mov    -0x24(%rsp),%eax
  4017aa:	69 c0 fc 56 00 00    	imul   $0x56fc,%eax,%eax
  4017b0:	89 44 24 dc          	mov    %eax,-0x24(%rsp)
  4017b4:	8b 44 24 cc          	mov    -0x34(%rsp),%eax
  4017b8:	69 c0 ae 95 00 00    	imul   $0x95ae,%eax,%eax
  4017be:	89 44 24 cc          	mov    %eax,-0x34(%rsp)
  4017c2:	8b 44 24 d4          	mov    -0x2c(%rsp),%eax
  4017c6:	69 c0 d4 a1 00 00    	imul   $0xa1d4,%eax,%eax
  4017cc:	89 44 24 d4          	mov    %eax,-0x2c(%rsp)
  4017d0:	8b 44 24 ec          	mov    -0x14(%rsp),%eax
  4017d4:	69 c0 b2 68 00 00    	imul   $0x68b2,%eax,%eax
  4017da:	89 44 24 ec          	mov    %eax,-0x14(%rsp)
  4017de:	8b 44 24 ec          	mov    -0x14(%rsp),%eax
  4017e2:	69 c0 78 6f 00 00    	imul   $0x6f78,%eax,%eax
  4017e8:	89 44 24 ec          	mov    %eax,-0x14(%rsp)
  4017ec:	8b 44 24 dc          	mov    -0x24(%rsp),%eax
  4017f0:	69 c0 0a 56 00 00    	imul   $0x560a,%eax,%eax
  4017f6:	89 44 24 dc          	mov    %eax,-0x24(%rsp)
  4017fa:	ba 00 00 00 00       	mov    $0x0,%edx
  4017ff:	b8 00 00 00 00       	mov    $0x0,%eax
  401804:	eb 0b                	jmp    401811 <scramble+0x478>
  401806:	89 d1                	mov    %edx,%ecx
  401808:	8b 4c 8c c8          	mov    -0x38(%rsp,%rcx,4),%ecx
  40180c:	01 c8                	add    %ecx,%eax
  40180e:	83 c2 01             	add    $0x1,%edx
  401811:	83 fa 09             	cmp    $0x9,%edx
  401814:	76 f0                	jbe    401806 <scramble+0x46d>
  401816:	f3 c3                	repz retq 

0000000000401818 <getbuf>:
  401818:	48 83 ec 18          	sub    $0x18,%rsp
  40181c:	48 89 e7             	mov    %rsp,%rdi
  40181f:	e8 9c 03 00 00       	callq  401bc0 <Gets>
  401824:	b8 01 00 00 00       	mov    $0x1,%eax
  401829:	48 83 c4 18          	add    $0x18,%rsp
  40182d:	c3                   	retq   

000000000040182e <touch1>:
  40182e:	48 83 ec 08          	sub    $0x8,%rsp
  401832:	c7 05 e0 3c 20 00 01 	movl   $0x1,0x203ce0(%rip)        # 60551c <vlevel>
  401839:	00 00 00 
  40183c:	bf 67 32 40 00       	mov    $0x403267,%edi
  401841:	e8 9a f4 ff ff       	callq  400ce0 <puts@plt>
  401846:	bf 01 00 00 00       	mov    $0x1,%edi
  40184b:	e8 c6 05 00 00       	callq  401e16 <validate>
  401850:	bf 00 00 00 00       	mov    $0x0,%edi
  401855:	e8 16 f6 ff ff       	callq  400e70 <exit@plt>

000000000040185a <touch2>:
  40185a:	48 83 ec 08          	sub    $0x8,%rsp
  40185e:	89 fa                	mov    %edi,%edx
  401860:	c7 05 b2 3c 20 00 02 	movl   $0x2,0x203cb2(%rip)        # 60551c <vlevel>
  401867:	00 00 00 
  40186a:	3b 3d b4 3c 20 00    	cmp    0x203cb4(%rip),%edi        # 605524 <cookie>
  401870:	75 20                	jne    401892 <touch2+0x38>
  401872:	be 90 32 40 00       	mov    $0x403290,%esi
  401877:	bf 01 00 00 00       	mov    $0x1,%edi
  40187c:	b8 00 00 00 00       	mov    $0x0,%eax
  401881:	e8 9a f5 ff ff       	callq  400e20 <__printf_chk@plt>
  401886:	bf 02 00 00 00       	mov    $0x2,%edi
  40188b:	e8 86 05 00 00       	callq  401e16 <validate>
  401890:	eb 1e                	jmp    4018b0 <touch2+0x56>
  401892:	be b8 32 40 00       	mov    $0x4032b8,%esi
  401897:	bf 01 00 00 00       	mov    $0x1,%edi
  40189c:	b8 00 00 00 00       	mov    $0x0,%eax
  4018a1:	e8 7a f5 ff ff       	callq  400e20 <__printf_chk@plt>
  4018a6:	bf 02 00 00 00       	mov    $0x2,%edi
  4018ab:	e8 28 06 00 00       	callq  401ed8 <fail>
  4018b0:	bf 00 00 00 00       	mov    $0x0,%edi
  4018b5:	e8 b6 f5 ff ff       	callq  400e70 <exit@plt>

00000000004018ba <hexmatch>:
  4018ba:	41 54                	push   %r12
  4018bc:	55                   	push   %rbp
  4018bd:	53                   	push   %rbx
  4018be:	48 83 c4 80          	add    $0xffffffffffffff80,%rsp
  4018c2:	41 89 fc             	mov    %edi,%r12d
  4018c5:	48 89 f5             	mov    %rsi,%rbp
  4018c8:	64 48 8b 04 25 28 00 	mov    %fs:0x28,%rax
  4018cf:	00 00 
  4018d1:	48 89 44 24 78       	mov    %rax,0x78(%rsp)
  4018d6:	31 c0                	xor    %eax,%eax
  4018d8:	e8 03 f5 ff ff       	callq  400de0 <random@plt>
  4018dd:	48 89 c1             	mov    %rax,%rcx
  4018e0:	48 ba 0b d7 a3 70 3d 	movabs $0xa3d70a3d70a3d70b,%rdx
  4018e7:	0a d7 a3 
  4018ea:	48 f7 ea             	imul   %rdx
  4018ed:	48 01 ca             	add    %rcx,%rdx
  4018f0:	48 c1 fa 06          	sar    $0x6,%rdx
  4018f4:	48 89 c8             	mov    %rcx,%rax
  4018f7:	48 c1 f8 3f          	sar    $0x3f,%rax
  4018fb:	48 29 c2             	sub    %rax,%rdx
  4018fe:	48 8d 04 92          	lea    (%rdx,%rdx,4),%rax
  401902:	48 8d 04 80          	lea    (%rax,%rax,4),%rax
  401906:	48 c1 e0 02          	shl    $0x2,%rax
  40190a:	48 29 c1             	sub    %rax,%rcx
  40190d:	48 8d 1c 0c          	lea    (%rsp,%rcx,1),%rbx
  401911:	45 89 e0             	mov    %r12d,%r8d
  401914:	b9 84 32 40 00       	mov    $0x403284,%ecx
  401919:	48 c7 c2 ff ff ff ff 	mov    $0xffffffffffffffff,%rdx
  401920:	be 01 00 00 00       	mov    $0x1,%esi
  401925:	48 89 df             	mov    %rbx,%rdi
  401928:	b8 00 00 00 00       	mov    $0x0,%eax
  40192d:	e8 6e f5 ff ff       	callq  400ea0 <__sprintf_chk@plt>
  401932:	ba 09 00 00 00       	mov    $0x9,%edx
  401937:	48 89 de             	mov    %rbx,%rsi
  40193a:	48 89 ef             	mov    %rbp,%rdi
  40193d:	e8 7e f3 ff ff       	callq  400cc0 <strncmp@plt>
  401942:	85 c0                	test   %eax,%eax
  401944:	0f 94 c0             	sete   %al
  401947:	0f b6 c0             	movzbl %al,%eax
  40194a:	48 8b 74 24 78       	mov    0x78(%rsp),%rsi
  40194f:	64 48 33 34 25 28 00 	xor    %fs:0x28,%rsi
  401956:	00 00 
  401958:	74 05                	je     40195f <hexmatch+0xa5>
  40195a:	e8 a1 f3 ff ff       	callq  400d00 <__stack_chk_fail@plt>
  40195f:	48 83 ec 80          	sub    $0xffffffffffffff80,%rsp
  401963:	5b                   	pop    %rbx
  401964:	5d                   	pop    %rbp
  401965:	41 5c                	pop    %r12
  401967:	c3                   	retq   

0000000000401968 <touch3>:
  401968:	53                   	push   %rbx
  401969:	48 89 fb             	mov    %rdi,%rbx
  40196c:	c7 05 a6 3b 20 00 03 	movl   $0x3,0x203ba6(%rip)        # 60551c <vlevel>
  401973:	00 00 00 
  401976:	48 89 fe             	mov    %rdi,%rsi
  401979:	8b 3d a5 3b 20 00    	mov    0x203ba5(%rip),%edi        # 605524 <cookie>
  40197f:	e8 36 ff ff ff       	callq  4018ba <hexmatch>
  401984:	85 c0                	test   %eax,%eax
  401986:	74 23                	je     4019ab <touch3+0x43>
  401988:	48 89 da             	mov    %rbx,%rdx
  40198b:	be e0 32 40 00       	mov    $0x4032e0,%esi
  401990:	bf 01 00 00 00       	mov    $0x1,%edi
  401995:	b8 00 00 00 00       	mov    $0x0,%eax
  40199a:	e8 81 f4 ff ff       	callq  400e20 <__printf_chk@plt>
  40199f:	bf 03 00 00 00       	mov    $0x3,%edi
  4019a4:	e8 6d 04 00 00       	callq  401e16 <validate>
  4019a9:	eb 21                	jmp    4019cc <touch3+0x64>
  4019ab:	48 89 da             	mov    %rbx,%rdx
  4019ae:	be 08 33 40 00       	mov    $0x403308,%esi
  4019b3:	bf 01 00 00 00       	mov    $0x1,%edi
  4019b8:	b8 00 00 00 00       	mov    $0x0,%eax
  4019bd:	e8 5e f4 ff ff       	callq  400e20 <__printf_chk@plt>
  4019c2:	bf 03 00 00 00       	mov    $0x3,%edi
  4019c7:	e8 0c 05 00 00       	callq  401ed8 <fail>
  4019cc:	bf 00 00 00 00       	mov    $0x0,%edi
  4019d1:	e8 9a f4 ff ff       	callq  400e70 <exit@plt>

00000000004019d6 <test>:
  4019d6:	48 83 ec 08          	sub    $0x8,%rsp
  4019da:	b8 00 00 00 00       	mov    $0x0,%eax
  4019df:	e8 34 fe ff ff       	callq  401818 <getbuf>
  4019e4:	89 c2                	mov    %eax,%edx
  4019e6:	be 30 33 40 00       	mov    $0x403330,%esi
  4019eb:	bf 01 00 00 00       	mov    $0x1,%edi
  4019f0:	b8 00 00 00 00       	mov    $0x0,%eax
  4019f5:	e8 26 f4 ff ff       	callq  400e20 <__printf_chk@plt>
  4019fa:	48 83 c4 08          	add    $0x8,%rsp
  4019fe:	c3                   	retq   

00000000004019ff <start_farm>:
  4019ff:	b8 01 00 00 00       	mov    $0x1,%eax
  401a04:	c3                   	retq   

0000000000401a05 <setval_146>:
  401a05:	c7 07 ba 48 89 c7    	movl   $0xc78948ba,(%rdi)
  401a0b:	c3                   	retq   

0000000000401a0c <addval_228>:
  401a0c:	8d 87 58 90 91 c3    	lea    -0x3c6e6fa8(%rdi),%eax
  401a12:	c3                   	retq   

0000000000401a13 <setval_421>:
  401a13:	c7 07 48 89 c7 c7    	movl   $0xc7c78948,(%rdi)
  401a19:	c3                   	retq   

0000000000401a1a <addval_365>:
  401a1a:	8d 87 bc 37 58 c3    	lea    -0x3ca7c844(%rdi),%eax
  401a20:	c3                   	retq   

0000000000401a21 <getval_303>:
  401a21:	b8 bf 5c fc 18       	mov    $0x18fc5cbf,%eax
  401a26:	c3                   	retq   

0000000000401a27 <getval_256>:
  401a27:	b8 69 d1 58 c3       	mov    $0xc358d169,%eax
  401a2c:	c3                   	retq   

0000000000401a2d <getval_345>:
  401a2d:	b8 48 89 c7 c3       	mov    $0xc3c78948,%eax
  401a32:	c3                   	retq   

0000000000401a33 <getval_300>:
  401a33:	b8 48 89 c7 c7       	mov    $0xc7c78948,%eax
  401a38:	c3                   	retq   

0000000000401a39 <mid_farm>:
  401a39:	b8 01 00 00 00       	mov    $0x1,%eax
  401a3e:	c3                   	retq   

0000000000401a3f <add_xy>:
  401a3f:	48 8d 04 37          	lea    (%rdi,%rsi,1),%rax
  401a43:	c3                   	retq   

0000000000401a44 <getval_279>:
  401a44:	b8 c9 c2 38 db       	mov    $0xdb38c2c9,%eax
  401a49:	c3                   	retq   

0000000000401a4a <getval_450>:
  401a4a:	b8 26 48 89 e0       	mov    $0xe0894826,%eax
  401a4f:	c3                   	retq   

0000000000401a50 <setval_278>:
  401a50:	c7 07 89 ce 08 c9    	movl   $0xc908ce89,(%rdi)
  401a56:	c3                   	retq   

0000000000401a57 <setval_169>:
  401a57:	c7 07 40 89 e0 90    	movl   $0x90e08940,(%rdi)
  401a5d:	c3                   	retq   

0000000000401a5e <addval_420>:
  401a5e:	8d 87 89 ce c4 db    	lea    -0x243b3177(%rdi),%eax
  401a64:	c3                   	retq   

0000000000401a65 <getval_262>:
  401a65:	b8 c9 ce 38 c9       	mov    $0xc938cec9,%eax
  401a6a:	c3                   	retq   

0000000000401a6b <getval_486>:
  401a6b:	b8 88 c2 90 90       	mov    $0x9090c288,%eax
  401a70:	c3                   	retq   

0000000000401a71 <getval_405>:
  401a71:	b8 81 ce 20 d2       	mov    $0xd220ce81,%eax
  401a76:	c3                   	retq   

0000000000401a77 <addval_106>:
  401a77:	8d 87 71 89 ce 90    	lea    -0x6f31768f(%rdi),%eax
  401a7d:	c3                   	retq   

0000000000401a7e <addval_461>:
  401a7e:	8d 87 48 89 e0 94    	lea    -0x6b1f76b8(%rdi),%eax
  401a84:	c3                   	retq   

0000000000401a85 <getval_145>:
  401a85:	b8 d9 4b 8b ce       	mov    $0xce8b4bd9,%eax
  401a8a:	c3                   	retq   

0000000000401a8b <getval_306>:
  401a8b:	b8 48 88 e0 c3       	mov    $0xc3e08848,%eax
  401a90:	c3                   	retq   

0000000000401a91 <addval_111>:
  401a91:	8d 87 81 ce 08 d2    	lea    -0x2df7317f(%rdi),%eax
  401a97:	c3                   	retq   

0000000000401a98 <addval_468>:
  401a98:	8d 87 ff 48 89 e0    	lea    -0x1f76b701(%rdi),%eax
  401a9e:	c3                   	retq   

0000000000401a9f <getval_248>:
  401a9f:	b8 89 d1 a4 c9       	mov    $0xc9a4d189,%eax
  401aa4:	c3                   	retq   

0000000000401aa5 <setval_469>:
  401aa5:	c7 07 89 d1 48 c0    	movl   $0xc048d189,(%rdi)
  401aab:	c3                   	retq   

0000000000401aac <addval_282>:
  401aac:	8d 87 88 ce 38 c9    	lea    -0x36c73178(%rdi),%eax
  401ab2:	c3                   	retq   

0000000000401ab3 <getval_449>:
  401ab3:	b8 89 c2 60 c9       	mov    $0xc960c289,%eax
  401ab8:	c3                   	retq   

0000000000401ab9 <setval_316>:
  401ab9:	c7 07 48 a9 e0 c3    	movl   $0xc3e0a948,(%rdi)
  401abf:	c3                   	retq   

0000000000401ac0 <getval_118>:
  401ac0:	b8 c9 d1 90 c3       	mov    $0xc390d1c9,%eax
  401ac5:	c3                   	retq   

0000000000401ac6 <setval_234>:
  401ac6:	c7 07 89 d1 90 90    	movl   $0x9090d189,(%rdi)
  401acc:	c3                   	retq   

0000000000401acd <getval_240>:
  401acd:	b8 43 88 c2 90       	mov    $0x90c28843,%eax
  401ad2:	c3                   	retq   

0000000000401ad3 <addval_497>:
  401ad3:	8d 87 48 89 e0 c7    	lea    -0x381f76b8(%rdi),%eax
  401ad9:	c3                   	retq   

0000000000401ada <getval_261>:
  401ada:	b8 89 d1 30 db       	mov    $0xdb30d189,%eax
  401adf:	c3                   	retq   

0000000000401ae0 <getval_390>:
  401ae0:	b8 48 09 e0 c3       	mov    $0xc3e00948,%eax
  401ae5:	c3                   	retq   

0000000000401ae6 <getval_196>:
  401ae6:	b8 2e 89 d1 90       	mov    $0x90d1892e,%eax
  401aeb:	c3                   	retq   

0000000000401aec <getval_211>:
  401aec:	b8 89 d1 18 c0       	mov    $0xc018d189,%eax
  401af1:	c3                   	retq   

0000000000401af2 <addval_455>:
  401af2:	8d 87 89 c2 28 c9    	lea    -0x36d73d77(%rdi),%eax
  401af8:	c3                   	retq   

0000000000401af9 <getval_317>:
  401af9:	b8 a9 d1 38 db       	mov    $0xdb38d1a9,%eax
  401afe:	c3                   	retq   

0000000000401aff <addval_322>:
  401aff:	8d 87 89 c2 18 db    	lea    -0x24e73d77(%rdi),%eax
  401b05:	c3                   	retq   

0000000000401b06 <setval_470>:
  401b06:	c7 07 89 c2 08 db    	movl   $0xdb08c289,(%rdi)
  401b0c:	c3                   	retq   

0000000000401b0d <setval_437>:
  401b0d:	c7 07 89 c2 38 c0    	movl   $0xc038c289,(%rdi)
  401b13:	c3                   	retq   

0000000000401b14 <end_farm>:
  401b14:	b8 01 00 00 00       	mov    $0x1,%eax
  401b19:	c3                   	retq   
  401b1a:	66 0f 1f 44 00 00    	nopw   0x0(%rax,%rax,1)

0000000000401b20 <save_char>:
  401b20:	8b 05 1e 46 20 00    	mov    0x20461e(%rip),%eax        # 606144 <gets_cnt>
  401b26:	3d ff 03 00 00       	cmp    $0x3ff,%eax
  401b2b:	7f 49                	jg     401b76 <save_char+0x56>
  401b2d:	8d 14 40             	lea    (%rax,%rax,2),%edx
  401b30:	89 f9                	mov    %edi,%ecx
  401b32:	c0 e9 04             	shr    $0x4,%cl
  401b35:	83 e1 0f             	and    $0xf,%ecx
  401b38:	0f b6 b1 50 36 40 00 	movzbl 0x403650(%rcx),%esi
  401b3f:	48 63 ca             	movslq %edx,%rcx
  401b42:	40 88 b1 40 55 60 00 	mov    %sil,0x605540(%rcx)
  401b49:	8d 4a 01             	lea    0x1(%rdx),%ecx
  401b4c:	83 e7 0f             	and    $0xf,%edi
  401b4f:	0f b6 b7 50 36 40 00 	movzbl 0x403650(%rdi),%esi
  401b56:	48 63 c9             	movslq %ecx,%rcx
  401b59:	40 88 b1 40 55 60 00 	mov    %sil,0x605540(%rcx)
  401b60:	83 c2 02             	add    $0x2,%edx
  401b63:	48 63 d2             	movslq %edx,%rdx
  401b66:	c6 82 40 55 60 00 20 	movb   $0x20,0x605540(%rdx)
  401b6d:	83 c0 01             	add    $0x1,%eax
  401b70:	89 05 ce 45 20 00    	mov    %eax,0x2045ce(%rip)        # 606144 <gets_cnt>
  401b76:	f3 c3                	repz retq 

0000000000401b78 <save_term>:
  401b78:	8b 05 c6 45 20 00    	mov    0x2045c6(%rip),%eax        # 606144 <gets_cnt>
  401b7e:	8d 04 40             	lea    (%rax,%rax,2),%eax
  401b81:	48 98                	cltq   
  401b83:	c6 80 40 55 60 00 00 	movb   $0x0,0x605540(%rax)
  401b8a:	c3                   	retq   

0000000000401b8b <check_fail>:
  401b8b:	48 83 ec 08          	sub    $0x8,%rsp
  401b8f:	0f be 15 b2 45 20 00 	movsbl 0x2045b2(%rip),%edx        # 606148 <target_prefix>
  401b96:	41 b8 40 55 60 00    	mov    $0x605540,%r8d
  401b9c:	8b 0d 76 39 20 00    	mov    0x203976(%rip),%ecx        # 605518 <check_level>
  401ba2:	be 53 33 40 00       	mov    $0x403353,%esi
  401ba7:	bf 01 00 00 00       	mov    $0x1,%edi
  401bac:	b8 00 00 00 00       	mov    $0x0,%eax
  401bb1:	e8 6a f2 ff ff       	callq  400e20 <__printf_chk@plt>
  401bb6:	bf 01 00 00 00       	mov    $0x1,%edi
  401bbb:	e8 b0 f2 ff ff       	callq  400e70 <exit@plt>

0000000000401bc0 <Gets>:
  401bc0:	41 54                	push   %r12
  401bc2:	55                   	push   %rbp
  401bc3:	53                   	push   %rbx
  401bc4:	49 89 fc             	mov    %rdi,%r12
  401bc7:	c7 05 73 45 20 00 00 	movl   $0x0,0x204573(%rip)        # 606144 <gets_cnt>
  401bce:	00 00 00 
  401bd1:	48 89 fb             	mov    %rdi,%rbx
  401bd4:	eb 11                	jmp    401be7 <Gets+0x27>
  401bd6:	48 8d 6b 01          	lea    0x1(%rbx),%rbp
  401bda:	88 03                	mov    %al,(%rbx)
  401bdc:	0f b6 f8             	movzbl %al,%edi
  401bdf:	e8 3c ff ff ff       	callq  401b20 <save_char>
  401be4:	48 89 eb             	mov    %rbp,%rbx
  401be7:	48 8b 3d 22 39 20 00 	mov    0x203922(%rip),%rdi        # 605510 <infile>
  401bee:	e8 fd f1 ff ff       	callq  400df0 <_IO_getc@plt>
  401bf3:	83 f8 ff             	cmp    $0xffffffff,%eax
  401bf6:	74 05                	je     401bfd <Gets+0x3d>
  401bf8:	83 f8 0a             	cmp    $0xa,%eax
  401bfb:	75 d9                	jne    401bd6 <Gets+0x16>
  401bfd:	c6 03 00             	movb   $0x0,(%rbx)
  401c00:	b8 00 00 00 00       	mov    $0x0,%eax
  401c05:	e8 6e ff ff ff       	callq  401b78 <save_term>
  401c0a:	4c 89 e0             	mov    %r12,%rax
  401c0d:	5b                   	pop    %rbx
  401c0e:	5d                   	pop    %rbp
  401c0f:	41 5c                	pop    %r12
  401c11:	c3                   	retq   

0000000000401c12 <notify_server>:
  401c12:	53                   	push   %rbx
  401c13:	48 81 ec 30 40 00 00 	sub    $0x4030,%rsp
  401c1a:	64 48 8b 04 25 28 00 	mov    %fs:0x28,%rax
  401c21:	00 00 
  401c23:	48 89 84 24 28 40 00 	mov    %rax,0x4028(%rsp)
  401c2a:	00 
  401c2b:	31 c0                	xor    %eax,%eax
  401c2d:	83 3d f4 38 20 00 00 	cmpl   $0x0,0x2038f4(%rip)        # 605528 <is_checker>
  401c34:	0f 85 bb 01 00 00    	jne    401df5 <notify_server+0x1e3>
  401c3a:	89 fb                	mov    %edi,%ebx
  401c3c:	8b 05 02 45 20 00    	mov    0x204502(%rip),%eax        # 606144 <gets_cnt>
  401c42:	83 c0 64             	add    $0x64,%eax
  401c45:	3d 00 20 00 00       	cmp    $0x2000,%eax
  401c4a:	7e 1e                	jle    401c6a <notify_server+0x58>
  401c4c:	be 88 34 40 00       	mov    $0x403488,%esi
  401c51:	bf 01 00 00 00       	mov    $0x1,%edi
  401c56:	b8 00 00 00 00       	mov    $0x0,%eax
  401c5b:	e8 c0 f1 ff ff       	callq  400e20 <__printf_chk@plt>
  401c60:	bf 01 00 00 00       	mov    $0x1,%edi
  401c65:	e8 06 f2 ff ff       	callq  400e70 <exit@plt>
  401c6a:	0f be 05 d7 44 20 00 	movsbl 0x2044d7(%rip),%eax        # 606148 <target_prefix>
  401c71:	83 3d 30 38 20 00 00 	cmpl   $0x0,0x203830(%rip)        # 6054a8 <notify>
  401c78:	74 08                	je     401c82 <notify_server+0x70>
  401c7a:	8b 15 a0 38 20 00    	mov    0x2038a0(%rip),%edx        # 605520 <authkey>
  401c80:	eb 05                	jmp    401c87 <notify_server+0x75>
  401c82:	ba ff ff ff ff       	mov    $0xffffffff,%edx
  401c87:	85 db                	test   %ebx,%ebx
  401c89:	74 08                	je     401c93 <notify_server+0x81>
  401c8b:	41 b9 69 33 40 00    	mov    $0x403369,%r9d
  401c91:	eb 06                	jmp    401c99 <notify_server+0x87>
  401c93:	41 b9 6e 33 40 00    	mov    $0x40336e,%r9d
  401c99:	48 c7 44 24 18 40 55 	movq   $0x605540,0x18(%rsp)
  401ca0:	60 00 
  401ca2:	89 74 24 10          	mov    %esi,0x10(%rsp)
  401ca6:	89 44 24 08          	mov    %eax,0x8(%rsp)
  401caa:	89 14 24             	mov    %edx,(%rsp)
  401cad:	44 8b 05 b4 34 20 00 	mov    0x2034b4(%rip),%r8d        # 605168 <target_id>
  401cb4:	b9 73 33 40 00       	mov    $0x403373,%ecx
  401cb9:	ba 00 20 00 00       	mov    $0x2000,%edx
  401cbe:	be 01 00 00 00       	mov    $0x1,%esi
  401cc3:	48 8d 7c 24 20       	lea    0x20(%rsp),%rdi
  401cc8:	b8 00 00 00 00       	mov    $0x0,%eax
  401ccd:	e8 ce f1 ff ff       	callq  400ea0 <__sprintf_chk@plt>
  401cd2:	83 3d cf 37 20 00 00 	cmpl   $0x0,0x2037cf(%rip)        # 6054a8 <notify>
  401cd9:	0f 84 86 00 00 00    	je     401d65 <notify_server+0x153>
  401cdf:	85 db                	test   %ebx,%ebx
  401ce1:	74 70                	je     401d53 <notify_server+0x141>
  401ce3:	4c 8d 8c 24 20 20 00 	lea    0x2020(%rsp),%r9
  401cea:	00 
  401ceb:	41 b8 00 00 00 00    	mov    $0x0,%r8d
  401cf1:	48 8d 4c 24 20       	lea    0x20(%rsp),%rcx
  401cf6:	48 8b 15 73 34 20 00 	mov    0x203473(%rip),%rdx        # 605170 <lab>
  401cfd:	48 8b 35 74 34 20 00 	mov    0x203474(%rip),%rsi        # 605178 <course>
  401d04:	48 8b 3d 55 34 20 00 	mov    0x203455(%rip),%rdi        # 605160 <user_id>
  401d0b:	e8 be 10 00 00       	callq  402dce <driver_post>
  401d10:	85 c0                	test   %eax,%eax
  401d12:	79 26                	jns    401d3a <notify_server+0x128>
  401d14:	48 8d 94 24 20 20 00 	lea    0x2020(%rsp),%rdx
  401d1b:	00 
  401d1c:	be 8f 33 40 00       	mov    $0x40338f,%esi
  401d21:	bf 01 00 00 00       	mov    $0x1,%edi
  401d26:	b8 00 00 00 00       	mov    $0x0,%eax
  401d2b:	e8 f0 f0 ff ff       	callq  400e20 <__printf_chk@plt>
  401d30:	bf 01 00 00 00       	mov    $0x1,%edi
  401d35:	e8 36 f1 ff ff       	callq  400e70 <exit@plt>
  401d3a:	bf b8 34 40 00       	mov    $0x4034b8,%edi
  401d3f:	e8 9c ef ff ff       	callq  400ce0 <puts@plt>
  401d44:	bf 9b 33 40 00       	mov    $0x40339b,%edi
  401d49:	e8 92 ef ff ff       	callq  400ce0 <puts@plt>
  401d4e:	e9 a2 00 00 00       	jmpq   401df5 <notify_server+0x1e3>
  401d53:	bf a5 33 40 00       	mov    $0x4033a5,%edi
  401d58:	e8 83 ef ff ff       	callq  400ce0 <puts@plt>
  401d5d:	0f 1f 00             	nopl   (%rax)
  401d60:	e9 90 00 00 00       	jmpq   401df5 <notify_server+0x1e3>
  401d65:	85 db                	test   %ebx,%ebx
  401d67:	74 09                	je     401d72 <notify_server+0x160>
  401d69:	ba 69 33 40 00       	mov    $0x403369,%edx
  401d6e:	66 90                	xchg   %ax,%ax
  401d70:	eb 05                	jmp    401d77 <notify_server+0x165>
  401d72:	ba 6e 33 40 00       	mov    $0x40336e,%edx
  401d77:	be f0 34 40 00       	mov    $0x4034f0,%esi
  401d7c:	bf 01 00 00 00       	mov    $0x1,%edi
  401d81:	b8 00 00 00 00       	mov    $0x0,%eax
  401d86:	e8 95 f0 ff ff       	callq  400e20 <__printf_chk@plt>
  401d8b:	48 8b 15 ce 33 20 00 	mov    0x2033ce(%rip),%rdx        # 605160 <user_id>
  401d92:	be ac 33 40 00       	mov    $0x4033ac,%esi
  401d97:	bf 01 00 00 00       	mov    $0x1,%edi
  401d9c:	b8 00 00 00 00       	mov    $0x0,%eax
  401da1:	e8 7a f0 ff ff       	callq  400e20 <__printf_chk@plt>
  401da6:	48 8b 15 cb 33 20 00 	mov    0x2033cb(%rip),%rdx        # 605178 <course>
  401dad:	be b9 33 40 00       	mov    $0x4033b9,%esi
  401db2:	bf 01 00 00 00       	mov    $0x1,%edi
  401db7:	b8 00 00 00 00       	mov    $0x0,%eax
  401dbc:	e8 5f f0 ff ff       	callq  400e20 <__printf_chk@plt>
  401dc1:	48 8b 15 a8 33 20 00 	mov    0x2033a8(%rip),%rdx        # 605170 <lab>
  401dc8:	be c5 33 40 00       	mov    $0x4033c5,%esi
  401dcd:	bf 01 00 00 00       	mov    $0x1,%edi
  401dd2:	b8 00 00 00 00       	mov    $0x0,%eax
  401dd7:	e8 44 f0 ff ff       	callq  400e20 <__printf_chk@plt>
  401ddc:	48 8d 54 24 20       	lea    0x20(%rsp),%rdx
  401de1:	be ce 33 40 00       	mov    $0x4033ce,%esi
  401de6:	bf 01 00 00 00       	mov    $0x1,%edi
  401deb:	b8 00 00 00 00       	mov    $0x0,%eax
  401df0:	e8 2b f0 ff ff       	callq  400e20 <__printf_chk@plt>
  401df5:	48 8b 84 24 28 40 00 	mov    0x4028(%rsp),%rax
  401dfc:	00 
  401dfd:	64 48 33 04 25 28 00 	xor    %fs:0x28,%rax
  401e04:	00 00 
  401e06:	74 05                	je     401e0d <notify_server+0x1fb>
  401e08:	e8 f3 ee ff ff       	callq  400d00 <__stack_chk_fail@plt>
  401e0d:	48 81 c4 30 40 00 00 	add    $0x4030,%rsp
  401e14:	5b                   	pop    %rbx
  401e15:	c3                   	retq   

0000000000401e16 <validate>:
  401e16:	53                   	push   %rbx
  401e17:	89 fb                	mov    %edi,%ebx
  401e19:	83 3d 08 37 20 00 00 	cmpl   $0x0,0x203708(%rip)        # 605528 <is_checker>
  401e20:	74 6b                	je     401e8d <validate+0x77>
  401e22:	39 3d f4 36 20 00    	cmp    %edi,0x2036f4(%rip)        # 60551c <vlevel>
  401e28:	74 14                	je     401e3e <validate+0x28>
  401e2a:	bf da 33 40 00       	mov    $0x4033da,%edi
  401e2f:	e8 ac ee ff ff       	callq  400ce0 <puts@plt>
  401e34:	b8 00 00 00 00       	mov    $0x0,%eax
  401e39:	e8 4d fd ff ff       	callq  401b8b <check_fail>
  401e3e:	8b 15 d4 36 20 00    	mov    0x2036d4(%rip),%edx        # 605518 <check_level>
  401e44:	39 fa                	cmp    %edi,%edx
  401e46:	74 20                	je     401e68 <validate+0x52>
  401e48:	89 f9                	mov    %edi,%ecx
  401e4a:	be 18 35 40 00       	mov    $0x403518,%esi
  401e4f:	bf 01 00 00 00       	mov    $0x1,%edi
  401e54:	b8 00 00 00 00       	mov    $0x0,%eax
  401e59:	e8 c2 ef ff ff       	callq  400e20 <__printf_chk@plt>
  401e5e:	b8 00 00 00 00       	mov    $0x0,%eax
  401e63:	e8 23 fd ff ff       	callq  401b8b <check_fail>
  401e68:	0f be 15 d9 42 20 00 	movsbl 0x2042d9(%rip),%edx        # 606148 <target_prefix>
  401e6f:	41 b8 40 55 60 00    	mov    $0x605540,%r8d
  401e75:	89 f9                	mov    %edi,%ecx
  401e77:	be f8 33 40 00       	mov    $0x4033f8,%esi
  401e7c:	bf 01 00 00 00       	mov    $0x1,%edi
  401e81:	b8 00 00 00 00       	mov    $0x0,%eax
  401e86:	e8 95 ef ff ff       	callq  400e20 <__printf_chk@plt>
  401e8b:	eb 49                	jmp    401ed6 <validate+0xc0>
  401e8d:	39 3d 89 36 20 00    	cmp    %edi,0x203689(%rip)        # 60551c <vlevel>
  401e93:	74 18                	je     401ead <validate+0x97>
  401e95:	bf da 33 40 00       	mov    $0x4033da,%edi
  401e9a:	e8 41 ee ff ff       	callq  400ce0 <puts@plt>
  401e9f:	89 de                	mov    %ebx,%esi
  401ea1:	bf 00 00 00 00       	mov    $0x0,%edi
  401ea6:	e8 67 fd ff ff       	callq  401c12 <notify_server>
  401eab:	eb 29                	jmp    401ed6 <validate+0xc0>
  401ead:	0f be 0d 94 42 20 00 	movsbl 0x204294(%rip),%ecx        # 606148 <target_prefix>
  401eb4:	89 fa                	mov    %edi,%edx
  401eb6:	be 40 35 40 00       	mov    $0x403540,%esi
  401ebb:	bf 01 00 00 00       	mov    $0x1,%edi
  401ec0:	b8 00 00 00 00       	mov    $0x0,%eax
  401ec5:	e8 56 ef ff ff       	callq  400e20 <__printf_chk@plt>
  401eca:	89 de                	mov    %ebx,%esi
  401ecc:	bf 01 00 00 00       	mov    $0x1,%edi
  401ed1:	e8 3c fd ff ff       	callq  401c12 <notify_server>
  401ed6:	5b                   	pop    %rbx
  401ed7:	c3                   	retq   

0000000000401ed8 <fail>:
  401ed8:	48 83 ec 08          	sub    $0x8,%rsp
  401edc:	83 3d 45 36 20 00 00 	cmpl   $0x0,0x203645(%rip)        # 605528 <is_checker>
  401ee3:	74 0a                	je     401eef <fail+0x17>
  401ee5:	b8 00 00 00 00       	mov    $0x0,%eax
  401eea:	e8 9c fc ff ff       	callq  401b8b <check_fail>
  401eef:	89 fe                	mov    %edi,%esi
  401ef1:	bf 00 00 00 00       	mov    $0x0,%edi
  401ef6:	e8 17 fd ff ff       	callq  401c12 <notify_server>
  401efb:	48 83 c4 08          	add    $0x8,%rsp
  401eff:	c3                   	retq   

0000000000401f00 <bushandler>:
  401f00:	48 83 ec 08          	sub    $0x8,%rsp
  401f04:	83 3d 1d 36 20 00 00 	cmpl   $0x0,0x20361d(%rip)        # 605528 <is_checker>
  401f0b:	74 14                	je     401f21 <bushandler+0x21>
  401f0d:	bf 0d 34 40 00       	mov    $0x40340d,%edi
  401f12:	e8 c9 ed ff ff       	callq  400ce0 <puts@plt>
  401f17:	b8 00 00 00 00       	mov    $0x0,%eax
  401f1c:	e8 6a fc ff ff       	callq  401b8b <check_fail>
  401f21:	bf 78 35 40 00       	mov    $0x403578,%edi
  401f26:	e8 b5 ed ff ff       	callq  400ce0 <puts@plt>
  401f2b:	bf 17 34 40 00       	mov    $0x403417,%edi
  401f30:	e8 ab ed ff ff       	callq  400ce0 <puts@plt>
  401f35:	be 00 00 00 00       	mov    $0x0,%esi
  401f3a:	bf 00 00 00 00       	mov    $0x0,%edi
  401f3f:	e8 ce fc ff ff       	callq  401c12 <notify_server>
  401f44:	bf 01 00 00 00       	mov    $0x1,%edi
  401f49:	e8 22 ef ff ff       	callq  400e70 <exit@plt>

0000000000401f4e <seghandler>:
  401f4e:	48 83 ec 08          	sub    $0x8,%rsp
  401f52:	83 3d cf 35 20 00 00 	cmpl   $0x0,0x2035cf(%rip)        # 605528 <is_checker>
  401f59:	74 14                	je     401f6f <seghandler+0x21>
  401f5b:	bf 2d 34 40 00       	mov    $0x40342d,%edi
  401f60:	e8 7b ed ff ff       	callq  400ce0 <puts@plt>
  401f65:	b8 00 00 00 00       	mov    $0x0,%eax
  401f6a:	e8 1c fc ff ff       	callq  401b8b <check_fail>
  401f6f:	bf 98 35 40 00       	mov    $0x403598,%edi
  401f74:	e8 67 ed ff ff       	callq  400ce0 <puts@plt>
  401f79:	bf 17 34 40 00       	mov    $0x403417,%edi
  401f7e:	e8 5d ed ff ff       	callq  400ce0 <puts@plt>
  401f83:	be 00 00 00 00       	mov    $0x0,%esi
  401f88:	bf 00 00 00 00       	mov    $0x0,%edi
  401f8d:	e8 80 fc ff ff       	callq  401c12 <notify_server>
  401f92:	bf 01 00 00 00       	mov    $0x1,%edi
  401f97:	e8 d4 ee ff ff       	callq  400e70 <exit@plt>

0000000000401f9c <illegalhandler>:
  401f9c:	48 83 ec 08          	sub    $0x8,%rsp
  401fa0:	83 3d 81 35 20 00 00 	cmpl   $0x0,0x203581(%rip)        # 605528 <is_checker>
  401fa7:	74 14                	je     401fbd <illegalhandler+0x21>
  401fa9:	bf 40 34 40 00       	mov    $0x403440,%edi
  401fae:	e8 2d ed ff ff       	callq  400ce0 <puts@plt>
  401fb3:	b8 00 00 00 00       	mov    $0x0,%eax
  401fb8:	e8 ce fb ff ff       	callq  401b8b <check_fail>
  401fbd:	bf c0 35 40 00       	mov    $0x4035c0,%edi
  401fc2:	e8 19 ed ff ff       	callq  400ce0 <puts@plt>
  401fc7:	bf 17 34 40 00       	mov    $0x403417,%edi
  401fcc:	e8 0f ed ff ff       	callq  400ce0 <puts@plt>
  401fd1:	be 00 00 00 00       	mov    $0x0,%esi
  401fd6:	bf 00 00 00 00       	mov    $0x0,%edi
  401fdb:	e8 32 fc ff ff       	callq  401c12 <notify_server>
  401fe0:	bf 01 00 00 00       	mov    $0x1,%edi
  401fe5:	e8 86 ee ff ff       	callq  400e70 <exit@plt>

0000000000401fea <sigalrmhandler>:
  401fea:	48 83 ec 08          	sub    $0x8,%rsp
  401fee:	83 3d 33 35 20 00 00 	cmpl   $0x0,0x203533(%rip)        # 605528 <is_checker>
  401ff5:	74 14                	je     40200b <sigalrmhandler+0x21>
  401ff7:	bf 54 34 40 00       	mov    $0x403454,%edi
  401ffc:	e8 df ec ff ff       	callq  400ce0 <puts@plt>
  402001:	b8 00 00 00 00       	mov    $0x0,%eax
  402006:	e8 80 fb ff ff       	callq  401b8b <check_fail>
  40200b:	ba 05 00 00 00       	mov    $0x5,%edx
  402010:	be f0 35 40 00       	mov    $0x4035f0,%esi
  402015:	bf 01 00 00 00       	mov    $0x1,%edi
  40201a:	b8 00 00 00 00       	mov    $0x0,%eax
  40201f:	e8 fc ed ff ff       	callq  400e20 <__printf_chk@plt>
  402024:	be 00 00 00 00       	mov    $0x0,%esi
  402029:	bf 00 00 00 00       	mov    $0x0,%edi
  40202e:	e8 df fb ff ff       	callq  401c12 <notify_server>
  402033:	bf 01 00 00 00       	mov    $0x1,%edi
  402038:	e8 33 ee ff ff       	callq  400e70 <exit@plt>

000000000040203d <launch>:
  40203d:	55                   	push   %rbp
  40203e:	48 89 e5             	mov    %rsp,%rbp
  402041:	48 83 ec 10          	sub    $0x10,%rsp
  402045:	48 89 fa             	mov    %rdi,%rdx
  402048:	64 48 8b 04 25 28 00 	mov    %fs:0x28,%rax
  40204f:	00 00 
  402051:	48 89 45 f8          	mov    %rax,-0x8(%rbp)
  402055:	31 c0                	xor    %eax,%eax
  402057:	48 8d 47 1e          	lea    0x1e(%rdi),%rax
  40205b:	48 83 e0 f0          	and    $0xfffffffffffffff0,%rax
  40205f:	48 29 c4             	sub    %rax,%rsp
  402062:	48 8d 7c 24 0f       	lea    0xf(%rsp),%rdi
  402067:	48 83 e7 f0          	and    $0xfffffffffffffff0,%rdi
  40206b:	be f4 00 00 00       	mov    $0xf4,%esi
  402070:	e8 ab ec ff ff       	callq  400d20 <memset@plt>
  402075:	48 8b 05 44 34 20 00 	mov    0x203444(%rip),%rax        # 6054c0 <stdin@@GLIBC_2.2.5>
  40207c:	48 39 05 8d 34 20 00 	cmp    %rax,0x20348d(%rip)        # 605510 <infile>
  402083:	75 14                	jne    402099 <launch+0x5c>
  402085:	be 5c 34 40 00       	mov    $0x40345c,%esi
  40208a:	bf 01 00 00 00       	mov    $0x1,%edi
  40208f:	b8 00 00 00 00       	mov    $0x0,%eax
  402094:	e8 87 ed ff ff       	callq  400e20 <__printf_chk@plt>
  402099:	c7 05 79 34 20 00 00 	movl   $0x0,0x203479(%rip)        # 60551c <vlevel>
  4020a0:	00 00 00 
  4020a3:	b8 00 00 00 00       	mov    $0x0,%eax
  4020a8:	e8 29 f9 ff ff       	callq  4019d6 <test>
  4020ad:	83 3d 74 34 20 00 00 	cmpl   $0x0,0x203474(%rip)        # 605528 <is_checker>
  4020b4:	74 14                	je     4020ca <launch+0x8d>
  4020b6:	bf 69 34 40 00       	mov    $0x403469,%edi
  4020bb:	e8 20 ec ff ff       	callq  400ce0 <puts@plt>
  4020c0:	b8 00 00 00 00       	mov    $0x0,%eax
  4020c5:	e8 c1 fa ff ff       	callq  401b8b <check_fail>
  4020ca:	bf 74 34 40 00       	mov    $0x403474,%edi
  4020cf:	e8 0c ec ff ff       	callq  400ce0 <puts@plt>
  4020d4:	48 8b 45 f8          	mov    -0x8(%rbp),%rax
  4020d8:	64 48 33 04 25 28 00 	xor    %fs:0x28,%rax
  4020df:	00 00 
  4020e1:	74 05                	je     4020e8 <launch+0xab>
  4020e3:	e8 18 ec ff ff       	callq  400d00 <__stack_chk_fail@plt>
  4020e8:	c9                   	leaveq 
  4020e9:	c3                   	retq   

00000000004020ea <stable_launch>:
  4020ea:	53                   	push   %rbx
  4020eb:	48 89 3d 16 34 20 00 	mov    %rdi,0x203416(%rip)        # 605508 <global_offset>
  4020f2:	41 b9 00 00 00 00    	mov    $0x0,%r9d
  4020f8:	41 b8 00 00 00 00    	mov    $0x0,%r8d
  4020fe:	b9 32 01 00 00       	mov    $0x132,%ecx
  402103:	ba 07 00 00 00       	mov    $0x7,%edx
  402108:	be 00 00 10 00       	mov    $0x100000,%esi
  40210d:	bf 00 60 58 55       	mov    $0x55586000,%edi
  402112:	e8 f9 eb ff ff       	callq  400d10 <mmap@plt>
  402117:	48 89 c3             	mov    %rax,%rbx
  40211a:	48 3d 00 60 58 55    	cmp    $0x55586000,%rax
  402120:	74 37                	je     402159 <stable_launch+0x6f>
  402122:	be 00 00 10 00       	mov    $0x100000,%esi
  402127:	48 89 c7             	mov    %rax,%rdi
  40212a:	e8 e1 ec ff ff       	callq  400e10 <munmap@plt>
  40212f:	b9 00 60 58 55       	mov    $0x55586000,%ecx
  402134:	ba 28 36 40 00       	mov    $0x403628,%edx
  402139:	be 01 00 00 00       	mov    $0x1,%esi
  40213e:	48 8b 3d a3 33 20 00 	mov    0x2033a3(%rip),%rdi        # 6054e8 <stderr@@GLIBC_2.2.5>
  402145:	b8 00 00 00 00       	mov    $0x0,%eax
  40214a:	e8 41 ed ff ff       	callq  400e90 <__fprintf_chk@plt>
  40214f:	bf 01 00 00 00       	mov    $0x1,%edi
  402154:	e8 17 ed ff ff       	callq  400e70 <exit@plt>
  402159:	48 8d 90 f8 ff 0f 00 	lea    0xffff8(%rax),%rdx
  402160:	48 89 15 e9 3f 20 00 	mov    %rdx,0x203fe9(%rip)        # 606150 <stack_top>
  402167:	48 89 e0             	mov    %rsp,%rax
  40216a:	48 89 d4             	mov    %rdx,%rsp
  40216d:	48 89 c2             	mov    %rax,%rdx
  402170:	48 89 15 89 33 20 00 	mov    %rdx,0x203389(%rip)        # 605500 <global_save_stack>
  402177:	48 8b 3d 8a 33 20 00 	mov    0x20338a(%rip),%rdi        # 605508 <global_offset>
  40217e:	e8 ba fe ff ff       	callq  40203d <launch>
  402183:	48 8b 05 76 33 20 00 	mov    0x203376(%rip),%rax        # 605500 <global_save_stack>
  40218a:	48 89 c4             	mov    %rax,%rsp
  40218d:	be 00 00 10 00       	mov    $0x100000,%esi
  402192:	48 89 df             	mov    %rbx,%rdi
  402195:	e8 76 ec ff ff       	callq  400e10 <munmap@plt>
  40219a:	5b                   	pop    %rbx
  40219b:	c3                   	retq   
  40219c:	0f 1f 40 00          	nopl   0x0(%rax)

00000000004021a0 <rio_readinitb>:
  4021a0:	89 37                	mov    %esi,(%rdi)
  4021a2:	c7 47 04 00 00 00 00 	movl   $0x0,0x4(%rdi)
  4021a9:	48 8d 47 10          	lea    0x10(%rdi),%rax
  4021ad:	48 89 47 08          	mov    %rax,0x8(%rdi)
  4021b1:	c3                   	retq   

00000000004021b2 <sigalrm_handler>:
  4021b2:	48 83 ec 08          	sub    $0x8,%rsp
  4021b6:	b9 00 00 00 00       	mov    $0x0,%ecx
  4021bb:	ba 60 36 40 00       	mov    $0x403660,%edx
  4021c0:	be 01 00 00 00       	mov    $0x1,%esi
  4021c5:	48 8b 3d 1c 33 20 00 	mov    0x20331c(%rip),%rdi        # 6054e8 <stderr@@GLIBC_2.2.5>
  4021cc:	b8 00 00 00 00       	mov    $0x0,%eax
  4021d1:	e8 ba ec ff ff       	callq  400e90 <__fprintf_chk@plt>
  4021d6:	bf 01 00 00 00       	mov    $0x1,%edi
  4021db:	e8 90 ec ff ff       	callq  400e70 <exit@plt>

00000000004021e0 <rio_writen>:
  4021e0:	41 55                	push   %r13
  4021e2:	41 54                	push   %r12
  4021e4:	55                   	push   %rbp
  4021e5:	53                   	push   %rbx
  4021e6:	48 83 ec 08          	sub    $0x8,%rsp
  4021ea:	41 89 fc             	mov    %edi,%r12d
  4021ed:	48 89 f5             	mov    %rsi,%rbp
  4021f0:	49 89 d5             	mov    %rdx,%r13
  4021f3:	48 89 d3             	mov    %rdx,%rbx
  4021f6:	eb 28                	jmp    402220 <rio_writen+0x40>
  4021f8:	48 89 da             	mov    %rbx,%rdx
  4021fb:	48 89 ee             	mov    %rbp,%rsi
  4021fe:	44 89 e7             	mov    %r12d,%edi
  402201:	e8 ea ea ff ff       	callq  400cf0 <write@plt>
  402206:	48 85 c0             	test   %rax,%rax
  402209:	7f 0f                	jg     40221a <rio_writen+0x3a>
  40220b:	e8 90 ea ff ff       	callq  400ca0 <__errno_location@plt>
  402210:	83 38 04             	cmpl   $0x4,(%rax)
  402213:	75 15                	jne    40222a <rio_writen+0x4a>
  402215:	b8 00 00 00 00       	mov    $0x0,%eax
  40221a:	48 29 c3             	sub    %rax,%rbx
  40221d:	48 01 c5             	add    %rax,%rbp
  402220:	48 85 db             	test   %rbx,%rbx
  402223:	75 d3                	jne    4021f8 <rio_writen+0x18>
  402225:	4c 89 e8             	mov    %r13,%rax
  402228:	eb 07                	jmp    402231 <rio_writen+0x51>
  40222a:	48 c7 c0 ff ff ff ff 	mov    $0xffffffffffffffff,%rax
  402231:	48 83 c4 08          	add    $0x8,%rsp
  402235:	5b                   	pop    %rbx
  402236:	5d                   	pop    %rbp
  402237:	41 5c                	pop    %r12
  402239:	41 5d                	pop    %r13
  40223b:	c3                   	retq   

000000000040223c <rio_read>:
  40223c:	41 56                	push   %r14
  40223e:	41 55                	push   %r13
  402240:	41 54                	push   %r12
  402242:	55                   	push   %rbp
  402243:	53                   	push   %rbx
  402244:	48 89 fb             	mov    %rdi,%rbx
  402247:	49 89 f6             	mov    %rsi,%r14
  40224a:	49 89 d5             	mov    %rdx,%r13
  40224d:	4c 8d 67 10          	lea    0x10(%rdi),%r12
  402251:	eb 2a                	jmp    40227d <rio_read+0x41>
  402253:	8b 3b                	mov    (%rbx),%edi
  402255:	ba 00 20 00 00       	mov    $0x2000,%edx
  40225a:	4c 89 e6             	mov    %r12,%rsi
  40225d:	e8 ee ea ff ff       	callq  400d50 <read@plt>
  402262:	89 43 04             	mov    %eax,0x4(%rbx)
  402265:	85 c0                	test   %eax,%eax
  402267:	79 0c                	jns    402275 <rio_read+0x39>
  402269:	e8 32 ea ff ff       	callq  400ca0 <__errno_location@plt>
  40226e:	83 38 04             	cmpl   $0x4,(%rax)
  402271:	74 0a                	je     40227d <rio_read+0x41>
  402273:	eb 37                	jmp    4022ac <rio_read+0x70>
  402275:	85 c0                	test   %eax,%eax
  402277:	74 3c                	je     4022b5 <rio_read+0x79>
  402279:	4c 89 63 08          	mov    %r12,0x8(%rbx)
  40227d:	8b 6b 04             	mov    0x4(%rbx),%ebp
  402280:	85 ed                	test   %ebp,%ebp
  402282:	7e cf                	jle    402253 <rio_read+0x17>
  402284:	89 e8                	mov    %ebp,%eax
  402286:	4c 39 e8             	cmp    %r13,%rax
  402289:	72 03                	jb     40228e <rio_read+0x52>
  40228b:	44 89 ed             	mov    %r13d,%ebp
  40228e:	4c 63 e5             	movslq %ebp,%r12
  402291:	48 8b 73 08          	mov    0x8(%rbx),%rsi
  402295:	4c 89 e2             	mov    %r12,%rdx
  402298:	4c 89 f7             	mov    %r14,%rdi
  40229b:	e8 20 eb ff ff       	callq  400dc0 <memcpy@plt>
  4022a0:	4c 01 63 08          	add    %r12,0x8(%rbx)
  4022a4:	29 6b 04             	sub    %ebp,0x4(%rbx)
  4022a7:	4c 89 e0             	mov    %r12,%rax
  4022aa:	eb 0e                	jmp    4022ba <rio_read+0x7e>
  4022ac:	48 c7 c0 ff ff ff ff 	mov    $0xffffffffffffffff,%rax
  4022b3:	eb 05                	jmp    4022ba <rio_read+0x7e>
  4022b5:	b8 00 00 00 00       	mov    $0x0,%eax
  4022ba:	5b                   	pop    %rbx
  4022bb:	5d                   	pop    %rbp
  4022bc:	41 5c                	pop    %r12
  4022be:	41 5d                	pop    %r13
  4022c0:	41 5e                	pop    %r14
  4022c2:	c3                   	retq   

00000000004022c3 <rio_readlineb>:
  4022c3:	41 55                	push   %r13
  4022c5:	41 54                	push   %r12
  4022c7:	55                   	push   %rbp
  4022c8:	53                   	push   %rbx
  4022c9:	48 83 ec 18          	sub    $0x18,%rsp
  4022cd:	49 89 fd             	mov    %rdi,%r13
  4022d0:	48 89 f5             	mov    %rsi,%rbp
  4022d3:	49 89 d4             	mov    %rdx,%r12
  4022d6:	bb 01 00 00 00       	mov    $0x1,%ebx
  4022db:	eb 3e                	jmp    40231b <rio_readlineb+0x58>
  4022dd:	ba 01 00 00 00       	mov    $0x1,%edx
  4022e2:	48 8d 74 24 0f       	lea    0xf(%rsp),%rsi
  4022e7:	4c 89 ef             	mov    %r13,%rdi
  4022ea:	e8 4d ff ff ff       	callq  40223c <rio_read>
  4022ef:	83 f8 01             	cmp    $0x1,%eax
  4022f2:	75 12                	jne    402306 <rio_readlineb+0x43>
  4022f4:	48 8d 55 01          	lea    0x1(%rbp),%rdx
  4022f8:	0f b6 44 24 0f       	movzbl 0xf(%rsp),%eax
  4022fd:	88 45 00             	mov    %al,0x0(%rbp)
  402300:	3c 0a                	cmp    $0xa,%al
  402302:	75 10                	jne    402314 <rio_readlineb+0x51>
  402304:	eb 1c                	jmp    402322 <rio_readlineb+0x5f>
  402306:	85 c0                	test   %eax,%eax
  402308:	75 24                	jne    40232e <rio_readlineb+0x6b>
  40230a:	48 83 fb 01          	cmp    $0x1,%rbx
  40230e:	66 90                	xchg   %ax,%ax
  402310:	75 13                	jne    402325 <rio_readlineb+0x62>
  402312:	eb 23                	jmp    402337 <rio_readlineb+0x74>
  402314:	48 83 c3 01          	add    $0x1,%rbx
  402318:	48 89 d5             	mov    %rdx,%rbp
  40231b:	4c 39 e3             	cmp    %r12,%rbx
  40231e:	72 bd                	jb     4022dd <rio_readlineb+0x1a>
  402320:	eb 03                	jmp    402325 <rio_readlineb+0x62>
  402322:	48 89 d5             	mov    %rdx,%rbp
  402325:	c6 45 00 00          	movb   $0x0,0x0(%rbp)
  402329:	48 89 d8             	mov    %rbx,%rax
  40232c:	eb 0e                	jmp    40233c <rio_readlineb+0x79>
  40232e:	48 c7 c0 ff ff ff ff 	mov    $0xffffffffffffffff,%rax
  402335:	eb 05                	jmp    40233c <rio_readlineb+0x79>
  402337:	b8 00 00 00 00       	mov    $0x0,%eax
  40233c:	48 83 c4 18          	add    $0x18,%rsp
  402340:	5b                   	pop    %rbx
  402341:	5d                   	pop    %rbp
  402342:	41 5c                	pop    %r12
  402344:	41 5d                	pop    %r13
  402346:	c3                   	retq   

0000000000402347 <urlencode>:
  402347:	41 54                	push   %r12
  402349:	55                   	push   %rbp
  40234a:	53                   	push   %rbx
  40234b:	48 83 ec 10          	sub    $0x10,%rsp
  40234f:	48 89 fb             	mov    %rdi,%rbx
  402352:	48 89 f5             	mov    %rsi,%rbp
  402355:	64 48 8b 04 25 28 00 	mov    %fs:0x28,%rax
  40235c:	00 00 
  40235e:	48 89 44 24 08       	mov    %rax,0x8(%rsp)
  402363:	31 c0                	xor    %eax,%eax
  402365:	48 c7 c1 ff ff ff ff 	mov    $0xffffffffffffffff,%rcx
  40236c:	f2 ae                	repnz scas %es:(%rdi),%al
  40236e:	48 f7 d1             	not    %rcx
  402371:	8d 41 ff             	lea    -0x1(%rcx),%eax
  402374:	e9 aa 00 00 00       	jmpq   402423 <urlencode+0xdc>
  402379:	44 0f b6 03          	movzbl (%rbx),%r8d
  40237d:	41 80 f8 2a          	cmp    $0x2a,%r8b
  402381:	0f 94 c2             	sete   %dl
  402384:	41 80 f8 2d          	cmp    $0x2d,%r8b
  402388:	0f 94 c0             	sete   %al
  40238b:	08 c2                	or     %al,%dl
  40238d:	75 24                	jne    4023b3 <urlencode+0x6c>
  40238f:	41 80 f8 2e          	cmp    $0x2e,%r8b
  402393:	74 1e                	je     4023b3 <urlencode+0x6c>
  402395:	41 80 f8 5f          	cmp    $0x5f,%r8b
  402399:	74 18                	je     4023b3 <urlencode+0x6c>
  40239b:	41 8d 40 d0          	lea    -0x30(%r8),%eax
  40239f:	3c 09                	cmp    $0x9,%al
  4023a1:	76 10                	jbe    4023b3 <urlencode+0x6c>
  4023a3:	41 8d 40 bf          	lea    -0x41(%r8),%eax
  4023a7:	3c 19                	cmp    $0x19,%al
  4023a9:	76 08                	jbe    4023b3 <urlencode+0x6c>
  4023ab:	41 8d 40 9f          	lea    -0x61(%r8),%eax
  4023af:	3c 19                	cmp    $0x19,%al
  4023b1:	77 0a                	ja     4023bd <urlencode+0x76>
  4023b3:	44 88 45 00          	mov    %r8b,0x0(%rbp)
  4023b7:	48 8d 6d 01          	lea    0x1(%rbp),%rbp
  4023bb:	eb 5f                	jmp    40241c <urlencode+0xd5>
  4023bd:	41 80 f8 20          	cmp    $0x20,%r8b
  4023c1:	75 0a                	jne    4023cd <urlencode+0x86>
  4023c3:	c6 45 00 2b          	movb   $0x2b,0x0(%rbp)
  4023c7:	48 8d 6d 01          	lea    0x1(%rbp),%rbp
  4023cb:	eb 4f                	jmp    40241c <urlencode+0xd5>
  4023cd:	41 8d 40 e0          	lea    -0x20(%r8),%eax
  4023d1:	3c 5f                	cmp    $0x5f,%al
  4023d3:	0f 96 c2             	setbe  %dl
  4023d6:	41 80 f8 09          	cmp    $0x9,%r8b
  4023da:	0f 94 c0             	sete   %al
  4023dd:	08 c2                	or     %al,%dl
  4023df:	74 50                	je     402431 <urlencode+0xea>
  4023e1:	45 0f b6 c0          	movzbl %r8b,%r8d
  4023e5:	b9 f8 36 40 00       	mov    $0x4036f8,%ecx
  4023ea:	ba 08 00 00 00       	mov    $0x8,%edx
  4023ef:	be 01 00 00 00       	mov    $0x1,%esi
  4023f4:	48 89 e7             	mov    %rsp,%rdi
  4023f7:	b8 00 00 00 00       	mov    $0x0,%eax
  4023fc:	e8 9f ea ff ff       	callq  400ea0 <__sprintf_chk@plt>
  402401:	0f b6 04 24          	movzbl (%rsp),%eax
  402405:	88 45 00             	mov    %al,0x0(%rbp)
  402408:	0f b6 44 24 01       	movzbl 0x1(%rsp),%eax
  40240d:	88 45 01             	mov    %al,0x1(%rbp)
  402410:	0f b6 44 24 02       	movzbl 0x2(%rsp),%eax
  402415:	88 45 02             	mov    %al,0x2(%rbp)
  402418:	48 8d 6d 03          	lea    0x3(%rbp),%rbp
  40241c:	48 83 c3 01          	add    $0x1,%rbx
  402420:	44 89 e0             	mov    %r12d,%eax
  402423:	44 8d 60 ff          	lea    -0x1(%rax),%r12d
  402427:	85 c0                	test   %eax,%eax
  402429:	0f 85 4a ff ff ff    	jne    402379 <urlencode+0x32>
  40242f:	eb 05                	jmp    402436 <urlencode+0xef>
  402431:	b8 ff ff ff ff       	mov    $0xffffffff,%eax
  402436:	48 8b 74 24 08       	mov    0x8(%rsp),%rsi
  40243b:	64 48 33 34 25 28 00 	xor    %fs:0x28,%rsi
  402442:	00 00 
  402444:	74 05                	je     40244b <urlencode+0x104>
  402446:	e8 b5 e8 ff ff       	callq  400d00 <__stack_chk_fail@plt>
  40244b:	48 83 c4 10          	add    $0x10,%rsp
  40244f:	5b                   	pop    %rbx
  402450:	5d                   	pop    %rbp
  402451:	41 5c                	pop    %r12
  402453:	c3                   	retq   

0000000000402454 <submitr>:
  402454:	41 57                	push   %r15
  402456:	41 56                	push   %r14
  402458:	41 55                	push   %r13
  40245a:	41 54                	push   %r12
  40245c:	55                   	push   %rbp
  40245d:	53                   	push   %rbx
  40245e:	48 81 ec 68 a0 00 00 	sub    $0xa068,%rsp
  402465:	49 89 fc             	mov    %rdi,%r12
  402468:	89 74 24 14          	mov    %esi,0x14(%rsp)
  40246c:	49 89 d7             	mov    %rdx,%r15
  40246f:	49 89 ce             	mov    %rcx,%r14
  402472:	4c 89 44 24 18       	mov    %r8,0x18(%rsp)
  402477:	4d 89 cd             	mov    %r9,%r13
  40247a:	48 8b 9c 24 a0 a0 00 	mov    0xa0a0(%rsp),%rbx
  402481:	00 
  402482:	64 48 8b 04 25 28 00 	mov    %fs:0x28,%rax
  402489:	00 00 
  40248b:	48 89 84 24 58 a0 00 	mov    %rax,0xa058(%rsp)
  402492:	00 
  402493:	31 c0                	xor    %eax,%eax
  402495:	c7 44 24 2c 00 00 00 	movl   $0x0,0x2c(%rsp)
  40249c:	00 
  40249d:	ba 00 00 00 00       	mov    $0x0,%edx
  4024a2:	be 01 00 00 00       	mov    $0x1,%esi
  4024a7:	bf 02 00 00 00       	mov    $0x2,%edi
  4024ac:	e8 ff e9 ff ff       	callq  400eb0 <socket@plt>
  4024b1:	89 c5                	mov    %eax,%ebp
  4024b3:	85 c0                	test   %eax,%eax
  4024b5:	79 4e                	jns    402505 <submitr+0xb1>
  4024b7:	48 b8 45 72 72 6f 72 	movabs $0x43203a726f727245,%rax
  4024be:	3a 20 43 
  4024c1:	48 89 03             	mov    %rax,(%rbx)
  4024c4:	48 b8 6c 69 65 6e 74 	movabs $0x6e7520746e65696c,%rax
  4024cb:	20 75 6e 
  4024ce:	48 89 43 08          	mov    %rax,0x8(%rbx)
  4024d2:	48 b8 61 62 6c 65 20 	movabs $0x206f7420656c6261,%rax
  4024d9:	74 6f 20 
  4024dc:	48 89 43 10          	mov    %rax,0x10(%rbx)
  4024e0:	48 b8 63 72 65 61 74 	movabs $0x7320657461657263,%rax
  4024e7:	65 20 73 
  4024ea:	48 89 43 18          	mov    %rax,0x18(%rbx)
  4024ee:	c7 43 20 6f 63 6b 65 	movl   $0x656b636f,0x20(%rbx)
  4024f5:	66 c7 43 24 74 00    	movw   $0x74,0x24(%rbx)
  4024fb:	b8 ff ff ff ff       	mov    $0xffffffff,%eax
  402500:	e9 84 06 00 00       	jmpq   402b89 <submitr+0x735>
  402505:	4c 89 e7             	mov    %r12,%rdi
  402508:	e8 73 e8 ff ff       	callq  400d80 <gethostbyname@plt>
  40250d:	48 85 c0             	test   %rax,%rax
  402510:	75 67                	jne    402579 <submitr+0x125>
  402512:	48 b8 45 72 72 6f 72 	movabs $0x44203a726f727245,%rax
  402519:	3a 20 44 
  40251c:	48 89 03             	mov    %rax,(%rbx)
  40251f:	48 b8 4e 53 20 69 73 	movabs $0x6e7520736920534e,%rax
  402526:	20 75 6e 
  402529:	48 89 43 08          	mov    %rax,0x8(%rbx)
  40252d:	48 b8 61 62 6c 65 20 	movabs $0x206f7420656c6261,%rax
  402534:	74 6f 20 
  402537:	48 89 43 10          	mov    %rax,0x10(%rbx)
  40253b:	48 b8 72 65 73 6f 6c 	movabs $0x2065766c6f736572,%rax
  402542:	76 65 20 
  402545:	48 89 43 18          	mov    %rax,0x18(%rbx)
  402549:	48 b8 73 65 72 76 65 	movabs $0x6120726576726573,%rax
  402550:	72 20 61 
  402553:	48 89 43 20          	mov    %rax,0x20(%rbx)
  402557:	c7 43 28 64 64 72 65 	movl   $0x65726464,0x28(%rbx)
  40255e:	66 c7 43 2c 73 73    	movw   $0x7373,0x2c(%rbx)
  402564:	c6 43 2e 00          	movb   $0x0,0x2e(%rbx)
  402568:	89 ef                	mov    %ebp,%edi
  40256a:	e8 d1 e7 ff ff       	callq  400d40 <close@plt>
  40256f:	b8 ff ff ff ff       	mov    $0xffffffff,%eax
  402574:	e9 10 06 00 00       	jmpq   402b89 <submitr+0x735>
  402579:	48 c7 44 24 30 00 00 	movq   $0x0,0x30(%rsp)
  402580:	00 00 
  402582:	48 c7 44 24 38 00 00 	movq   $0x0,0x38(%rsp)
  402589:	00 00 
  40258b:	66 c7 44 24 30 02 00 	movw   $0x2,0x30(%rsp)
  402592:	48 63 50 14          	movslq 0x14(%rax),%rdx
  402596:	48 8b 40 18          	mov    0x18(%rax),%rax
  40259a:	48 8b 30             	mov    (%rax),%rsi
  40259d:	48 8d 7c 24 34       	lea    0x34(%rsp),%rdi
  4025a2:	b9 0c 00 00 00       	mov    $0xc,%ecx
  4025a7:	e8 e4 e7 ff ff       	callq  400d90 <__memmove_chk@plt>
  4025ac:	0f b7 44 24 14       	movzwl 0x14(%rsp),%eax
  4025b1:	66 c1 c8 08          	ror    $0x8,%ax
  4025b5:	66 89 44 24 32       	mov    %ax,0x32(%rsp)
  4025ba:	ba 10 00 00 00       	mov    $0x10,%edx
  4025bf:	48 8d 74 24 30       	lea    0x30(%rsp),%rsi
  4025c4:	89 ef                	mov    %ebp,%edi
  4025c6:	e8 b5 e8 ff ff       	callq  400e80 <connect@plt>
  4025cb:	85 c0                	test   %eax,%eax
  4025cd:	79 59                	jns    402628 <submitr+0x1d4>
  4025cf:	48 b8 45 72 72 6f 72 	movabs $0x55203a726f727245,%rax
  4025d6:	3a 20 55 
  4025d9:	48 89 03             	mov    %rax,(%rbx)
  4025dc:	48 b8 6e 61 62 6c 65 	movabs $0x6f7420656c62616e,%rax
  4025e3:	20 74 6f 
  4025e6:	48 89 43 08          	mov    %rax,0x8(%rbx)
  4025ea:	48 b8 20 63 6f 6e 6e 	movabs $0x7463656e6e6f6320,%rax
  4025f1:	65 63 74 
  4025f4:	48 89 43 10          	mov    %rax,0x10(%rbx)
  4025f8:	48 b8 20 74 6f 20 74 	movabs $0x20656874206f7420,%rax
  4025ff:	68 65 20 
  402602:	48 89 43 18          	mov    %rax,0x18(%rbx)
  402606:	c7 43 20 73 65 72 76 	movl   $0x76726573,0x20(%rbx)
  40260d:	66 c7 43 24 65 72    	movw   $0x7265,0x24(%rbx)
  402613:	c6 43 26 00          	movb   $0x0,0x26(%rbx)
  402617:	89 ef                	mov    %ebp,%edi
  402619:	e8 22 e7 ff ff       	callq  400d40 <close@plt>
  40261e:	b8 ff ff ff ff       	mov    $0xffffffff,%eax
  402623:	e9 61 05 00 00       	jmpq   402b89 <submitr+0x735>
  402628:	48 c7 c2 ff ff ff ff 	mov    $0xffffffffffffffff,%rdx
  40262f:	4c 89 ef             	mov    %r13,%rdi
  402632:	b8 00 00 00 00       	mov    $0x0,%eax
  402637:	48 89 d1             	mov    %rdx,%rcx
  40263a:	f2 ae                	repnz scas %es:(%rdi),%al
  40263c:	48 f7 d1             	not    %rcx
  40263f:	48 89 ce             	mov    %rcx,%rsi
  402642:	4c 89 ff             	mov    %r15,%rdi
  402645:	48 89 d1             	mov    %rdx,%rcx
  402648:	f2 ae                	repnz scas %es:(%rdi),%al
  40264a:	48 f7 d1             	not    %rcx
  40264d:	49 89 c8             	mov    %rcx,%r8
  402650:	4c 89 f7             	mov    %r14,%rdi
  402653:	48 89 d1             	mov    %rdx,%rcx
  402656:	f2 ae                	repnz scas %es:(%rdi),%al
  402658:	49 29 c8             	sub    %rcx,%r8
  40265b:	48 8b 7c 24 18       	mov    0x18(%rsp),%rdi
  402660:	48 89 d1             	mov    %rdx,%rcx
  402663:	f2 ae                	repnz scas %es:(%rdi),%al
  402665:	49 29 c8             	sub    %rcx,%r8
  402668:	48 8d 44 76 fd       	lea    -0x3(%rsi,%rsi,2),%rax
  40266d:	49 8d 44 00 7b       	lea    0x7b(%r8,%rax,1),%rax
  402672:	48 3d 00 20 00 00    	cmp    $0x2000,%rax
  402678:	76 72                	jbe    4026ec <submitr+0x298>
  40267a:	48 b8 45 72 72 6f 72 	movabs $0x52203a726f727245,%rax
  402681:	3a 20 52 
  402684:	48 89 03             	mov    %rax,(%rbx)
  402687:	48 b8 65 73 75 6c 74 	movabs $0x747320746c757365,%rax
  40268e:	20 73 74 
  402691:	48 89 43 08          	mov    %rax,0x8(%rbx)
  402695:	48 b8 72 69 6e 67 20 	movabs $0x6f6f7420676e6972,%rax
  40269c:	74 6f 6f 
  40269f:	48 89 43 10          	mov    %rax,0x10(%rbx)
  4026a3:	48 b8 20 6c 61 72 67 	movabs $0x202e656772616c20,%rax
  4026aa:	65 2e 20 
  4026ad:	48 89 43 18          	mov    %rax,0x18(%rbx)
  4026b1:	48 b8 49 6e 63 72 65 	movabs $0x6573616572636e49,%rax
  4026b8:	61 73 65 
  4026bb:	48 89 43 20          	mov    %rax,0x20(%rbx)
  4026bf:	48 b8 20 53 55 42 4d 	movabs $0x5254494d42555320,%rax
  4026c6:	49 54 52 
  4026c9:	48 89 43 28          	mov    %rax,0x28(%rbx)
  4026cd:	48 b8 5f 4d 41 58 42 	movabs $0x46554258414d5f,%rax
  4026d4:	55 46 00 
  4026d7:	48 89 43 30          	mov    %rax,0x30(%rbx)
  4026db:	89 ef                	mov    %ebp,%edi
  4026dd:	e8 5e e6 ff ff       	callq  400d40 <close@plt>
  4026e2:	b8 ff ff ff ff       	mov    $0xffffffff,%eax
  4026e7:	e9 9d 04 00 00       	jmpq   402b89 <submitr+0x735>
  4026ec:	48 8d b4 24 40 20 00 	lea    0x2040(%rsp),%rsi
  4026f3:	00 
  4026f4:	b9 00 04 00 00       	mov    $0x400,%ecx
  4026f9:	b8 00 00 00 00       	mov    $0x0,%eax
  4026fe:	48 89 f7             	mov    %rsi,%rdi
  402701:	f3 48 ab             	rep stos %rax,%es:(%rdi)
  402704:	4c 89 ef             	mov    %r13,%rdi
  402707:	e8 3b fc ff ff       	callq  402347 <urlencode>
  40270c:	85 c0                	test   %eax,%eax
  40270e:	0f 89 8a 00 00 00    	jns    40279e <submitr+0x34a>
  402714:	48 b8 45 72 72 6f 72 	movabs $0x52203a726f727245,%rax
  40271b:	3a 20 52 
  40271e:	48 89 03             	mov    %rax,(%rbx)
  402721:	48 b8 65 73 75 6c 74 	movabs $0x747320746c757365,%rax
  402728:	20 73 74 
  40272b:	48 89 43 08          	mov    %rax,0x8(%rbx)
  40272f:	48 b8 72 69 6e 67 20 	movabs $0x6e6f6320676e6972,%rax
  402736:	63 6f 6e 
  402739:	48 89 43 10          	mov    %rax,0x10(%rbx)
  40273d:	48 b8 74 61 69 6e 73 	movabs $0x6e6120736e696174,%rax
  402744:	20 61 6e 
  402747:	48 89 43 18          	mov    %rax,0x18(%rbx)
  40274b:	48 b8 20 69 6c 6c 65 	movabs $0x6c6167656c6c6920,%rax
  402752:	67 61 6c 
  402755:	48 89 43 20          	mov    %rax,0x20(%rbx)
  402759:	48 b8 20 6f 72 20 75 	movabs $0x72706e7520726f20,%rax
  402760:	6e 70 72 
  402763:	48 89 43 28          	mov    %rax,0x28(%rbx)
  402767:	48 b8 69 6e 74 61 62 	movabs $0x20656c6261746e69,%rax
  40276e:	6c 65 20 
  402771:	48 89 43 30          	mov    %rax,0x30(%rbx)
  402775:	48 b8 63 68 61 72 61 	movabs $0x6574636172616863,%rax
  40277c:	63 74 65 
  40277f:	48 89 43 38          	mov    %rax,0x38(%rbx)
  402783:	66 c7 43 40 72 2e    	movw   $0x2e72,0x40(%rbx)
  402789:	c6 43 42 00          	movb   $0x0,0x42(%rbx)
  40278d:	89 ef                	mov    %ebp,%edi
  40278f:	e8 ac e5 ff ff       	callq  400d40 <close@plt>
  402794:	b8 ff ff ff ff       	mov    $0xffffffff,%eax
  402799:	e9 eb 03 00 00       	jmpq   402b89 <submitr+0x735>
  40279e:	4c 89 64 24 08       	mov    %r12,0x8(%rsp)
  4027a3:	48 8d 84 24 40 20 00 	lea    0x2040(%rsp),%rax
  4027aa:	00 
  4027ab:	48 89 04 24          	mov    %rax,(%rsp)
  4027af:	4d 89 f9             	mov    %r15,%r9
  4027b2:	4d 89 f0             	mov    %r14,%r8
  4027b5:	b9 88 36 40 00       	mov    $0x403688,%ecx
  4027ba:	ba 00 20 00 00       	mov    $0x2000,%edx
  4027bf:	be 01 00 00 00       	mov    $0x1,%esi
  4027c4:	48 8d 7c 24 40       	lea    0x40(%rsp),%rdi
  4027c9:	b8 00 00 00 00       	mov    $0x0,%eax
  4027ce:	e8 cd e6 ff ff       	callq  400ea0 <__sprintf_chk@plt>
  4027d3:	48 8d 7c 24 40       	lea    0x40(%rsp),%rdi
  4027d8:	b8 00 00 00 00       	mov    $0x0,%eax
  4027dd:	48 c7 c1 ff ff ff ff 	mov    $0xffffffffffffffff,%rcx
  4027e4:	f2 ae                	repnz scas %es:(%rdi),%al
  4027e6:	48 f7 d1             	not    %rcx
  4027e9:	48 8d 51 ff          	lea    -0x1(%rcx),%rdx
  4027ed:	48 8d 74 24 40       	lea    0x40(%rsp),%rsi
  4027f2:	89 ef                	mov    %ebp,%edi
  4027f4:	e8 e7 f9 ff ff       	callq  4021e0 <rio_writen>
  4027f9:	48 85 c0             	test   %rax,%rax
  4027fc:	79 6e                	jns    40286c <submitr+0x418>
  4027fe:	48 b8 45 72 72 6f 72 	movabs $0x43203a726f727245,%rax
  402805:	3a 20 43 
  402808:	48 89 03             	mov    %rax,(%rbx)
  40280b:	48 b8 6c 69 65 6e 74 	movabs $0x6e7520746e65696c,%rax
  402812:	20 75 6e 
  402815:	48 89 43 08          	mov    %rax,0x8(%rbx)
  402819:	48 b8 61 62 6c 65 20 	movabs $0x206f7420656c6261,%rax
  402820:	74 6f 20 
  402823:	48 89 43 10          	mov    %rax,0x10(%rbx)
  402827:	48 b8 77 72 69 74 65 	movabs $0x6f74206574697277,%rax
  40282e:	20 74 6f 
  402831:	48 89 43 18          	mov    %rax,0x18(%rbx)
  402835:	48 b8 20 74 68 65 20 	movabs $0x7365722065687420,%rax
  40283c:	72 65 73 
  40283f:	48 89 43 20          	mov    %rax,0x20(%rbx)
  402843:	48 b8 75 6c 74 20 73 	movabs $0x7672657320746c75,%rax
  40284a:	65 72 76 
  40284d:	48 89 43 28          	mov    %rax,0x28(%rbx)
  402851:	66 c7 43 30 65 72    	movw   $0x7265,0x30(%rbx)
  402857:	c6 43 32 00          	movb   $0x0,0x32(%rbx)
  40285b:	89 ef                	mov    %ebp,%edi
  40285d:	e8 de e4 ff ff       	callq  400d40 <close@plt>
  402862:	b8 ff ff ff ff       	mov    $0xffffffff,%eax
  402867:	e9 1d 03 00 00       	jmpq   402b89 <submitr+0x735>
  40286c:	89 ee                	mov    %ebp,%esi
  40286e:	48 8d bc 24 40 80 00 	lea    0x8040(%rsp),%rdi
  402875:	00 
  402876:	e8 25 f9 ff ff       	callq  4021a0 <rio_readinitb>
  40287b:	ba 00 20 00 00       	mov    $0x2000,%edx
  402880:	48 8d 74 24 40       	lea    0x40(%rsp),%rsi
  402885:	48 8d bc 24 40 80 00 	lea    0x8040(%rsp),%rdi
  40288c:	00 
  40288d:	e8 31 fa ff ff       	callq  4022c3 <rio_readlineb>
  402892:	48 85 c0             	test   %rax,%rax
  402895:	7f 7d                	jg     402914 <submitr+0x4c0>
  402897:	48 b8 45 72 72 6f 72 	movabs $0x43203a726f727245,%rax
  40289e:	3a 20 43 
  4028a1:	48 89 03             	mov    %rax,(%rbx)
  4028a4:	48 b8 6c 69 65 6e 74 	movabs $0x6e7520746e65696c,%rax
  4028ab:	20 75 6e 
  4028ae:	48 89 43 08          	mov    %rax,0x8(%rbx)
  4028b2:	48 b8 61 62 6c 65 20 	movabs $0x206f7420656c6261,%rax
  4028b9:	74 6f 20 
  4028bc:	48 89 43 10          	mov    %rax,0x10(%rbx)
  4028c0:	48 b8 72 65 61 64 20 	movabs $0x7269662064616572,%rax
  4028c7:	66 69 72 
  4028ca:	48 89 43 18          	mov    %rax,0x18(%rbx)
  4028ce:	48 b8 73 74 20 68 65 	movabs $0x6564616568207473,%rax
  4028d5:	61 64 65 
  4028d8:	48 89 43 20          	mov    %rax,0x20(%rbx)
  4028dc:	48 b8 72 20 66 72 6f 	movabs $0x72206d6f72662072,%rax
  4028e3:	6d 20 72 
  4028e6:	48 89 43 28          	mov    %rax,0x28(%rbx)
  4028ea:	48 b8 65 73 75 6c 74 	movabs $0x657320746c757365,%rax
  4028f1:	20 73 65 
  4028f4:	48 89 43 30          	mov    %rax,0x30(%rbx)
  4028f8:	c7 43 38 72 76 65 72 	movl   $0x72657672,0x38(%rbx)
  4028ff:	c6 43 3c 00          	movb   $0x0,0x3c(%rbx)
  402903:	89 ef                	mov    %ebp,%edi
  402905:	e8 36 e4 ff ff       	callq  400d40 <close@plt>
  40290a:	b8 ff ff ff ff       	mov    $0xffffffff,%eax
  40290f:	e9 75 02 00 00       	jmpq   402b89 <submitr+0x735>
  402914:	4c 8d 84 24 40 60 00 	lea    0x6040(%rsp),%r8
  40291b:	00 
  40291c:	48 8d 4c 24 2c       	lea    0x2c(%rsp),%rcx
  402921:	48 8d 94 24 40 40 00 	lea    0x4040(%rsp),%rdx
  402928:	00 
  402929:	be ff 36 40 00       	mov    $0x4036ff,%esi
  40292e:	48 8d 7c 24 40       	lea    0x40(%rsp),%rdi
  402933:	b8 00 00 00 00       	mov    $0x0,%eax
  402938:	e8 c3 e4 ff ff       	callq  400e00 <__isoc99_sscanf@plt>
  40293d:	41 bc 0d 00 00 00    	mov    $0xd,%r12d
  402943:	41 bd 0a 00 00 00    	mov    $0xa,%r13d
  402949:	e9 95 00 00 00       	jmpq   4029e3 <submitr+0x58f>
  40294e:	ba 00 20 00 00       	mov    $0x2000,%edx
  402953:	48 8d 74 24 40       	lea    0x40(%rsp),%rsi
  402958:	48 8d bc 24 40 80 00 	lea    0x8040(%rsp),%rdi
  40295f:	00 
  402960:	e8 5e f9 ff ff       	callq  4022c3 <rio_readlineb>
  402965:	48 85 c0             	test   %rax,%rax
  402968:	7f 79                	jg     4029e3 <submitr+0x58f>
  40296a:	48 b8 45 72 72 6f 72 	movabs $0x43203a726f727245,%rax
  402971:	3a 20 43 
  402974:	48 89 03             	mov    %rax,(%rbx)
  402977:	48 b8 6c 69 65 6e 74 	movabs $0x6e7520746e65696c,%rax
  40297e:	20 75 6e 
  402981:	48 89 43 08          	mov    %rax,0x8(%rbx)
  402985:	48 b8 61 62 6c 65 20 	movabs $0x206f7420656c6261,%rax
  40298c:	74 6f 20 
  40298f:	48 89 43 10          	mov    %rax,0x10(%rbx)
  402993:	48 b8 72 65 61 64 20 	movabs $0x6165682064616572,%rax
  40299a:	68 65 61 
  40299d:	48 89 43 18          	mov    %rax,0x18(%rbx)
  4029a1:	48 b8 64 65 72 73 20 	movabs $0x6f72662073726564,%rax
  4029a8:	66 72 6f 
  4029ab:	48 89 43 20          	mov    %rax,0x20(%rbx)
  4029af:	48 b8 6d 20 74 68 65 	movabs $0x657220656874206d,%rax
  4029b6:	20 72 65 
  4029b9:	48 89 43 28          	mov    %rax,0x28(%rbx)
  4029bd:	48 b8 73 75 6c 74 20 	movabs $0x72657320746c7573,%rax
  4029c4:	73 65 72 
  4029c7:	48 89 43 30          	mov    %rax,0x30(%rbx)
  4029cb:	c7 43 38 76 65 72 00 	movl   $0x726576,0x38(%rbx)
  4029d2:	89 ef                	mov    %ebp,%edi
  4029d4:	e8 67 e3 ff ff       	callq  400d40 <close@plt>
  4029d9:	b8 ff ff ff ff       	mov    $0xffffffff,%eax
  4029de:	e9 a6 01 00 00       	jmpq   402b89 <submitr+0x735>
  4029e3:	0f b6 44 24 40       	movzbl 0x40(%rsp),%eax
  4029e8:	44 89 e6             	mov    %r12d,%esi
  4029eb:	29 c6                	sub    %eax,%esi
  4029ed:	89 f0                	mov    %esi,%eax
  4029ef:	75 15                	jne    402a06 <submitr+0x5b2>
  4029f1:	0f b6 44 24 41       	movzbl 0x41(%rsp),%eax
  4029f6:	44 89 ea             	mov    %r13d,%edx
  4029f9:	29 c2                	sub    %eax,%edx
  4029fb:	89 d0                	mov    %edx,%eax
  4029fd:	75 07                	jne    402a06 <submitr+0x5b2>
  4029ff:	0f b6 44 24 42       	movzbl 0x42(%rsp),%eax
  402a04:	f7 d8                	neg    %eax
  402a06:	85 c0                	test   %eax,%eax
  402a08:	0f 85 40 ff ff ff    	jne    40294e <submitr+0x4fa>
  402a0e:	ba 00 20 00 00       	mov    $0x2000,%edx
  402a13:	48 8d 74 24 40       	lea    0x40(%rsp),%rsi
  402a18:	48 8d bc 24 40 80 00 	lea    0x8040(%rsp),%rdi
  402a1f:	00 
  402a20:	e8 9e f8 ff ff       	callq  4022c3 <rio_readlineb>
  402a25:	48 85 c0             	test   %rax,%rax
  402a28:	0f 8f 83 00 00 00    	jg     402ab1 <submitr+0x65d>
  402a2e:	48 b8 45 72 72 6f 72 	movabs $0x43203a726f727245,%rax
  402a35:	3a 20 43 
  402a38:	48 89 03             	mov    %rax,(%rbx)
  402a3b:	48 b8 6c 69 65 6e 74 	movabs $0x6e7520746e65696c,%rax
  402a42:	20 75 6e 
  402a45:	48 89 43 08          	mov    %rax,0x8(%rbx)
  402a49:	48 b8 61 62 6c 65 20 	movabs $0x206f7420656c6261,%rax
  402a50:	74 6f 20 
  402a53:	48 89 43 10          	mov    %rax,0x10(%rbx)
  402a57:	48 b8 72 65 61 64 20 	movabs $0x6174732064616572,%rax
  402a5e:	73 74 61 
  402a61:	48 89 43 18          	mov    %rax,0x18(%rbx)
  402a65:	48 b8 74 75 73 20 6d 	movabs $0x7373656d20737574,%rax
  402a6c:	65 73 73 
  402a6f:	48 89 43 20          	mov    %rax,0x20(%rbx)
  402a73:	48 b8 61 67 65 20 66 	movabs $0x6d6f726620656761,%rax
  402a7a:	72 6f 6d 
  402a7d:	48 89 43 28          	mov    %rax,0x28(%rbx)
  402a81:	48 b8 20 72 65 73 75 	movabs $0x20746c7573657220,%rax
  402a88:	6c 74 20 
  402a8b:	48 89 43 30          	mov    %rax,0x30(%rbx)
  402a8f:	c7 43 38 73 65 72 76 	movl   $0x76726573,0x38(%rbx)
  402a96:	66 c7 43 3c 65 72    	movw   $0x7265,0x3c(%rbx)
  402a9c:	c6 43 3e 00          	movb   $0x0,0x3e(%rbx)
  402aa0:	89 ef                	mov    %ebp,%edi
  402aa2:	e8 99 e2 ff ff       	callq  400d40 <close@plt>
  402aa7:	b8 ff ff ff ff       	mov    $0xffffffff,%eax
  402aac:	e9 d8 00 00 00       	jmpq   402b89 <submitr+0x735>
  402ab1:	44 8b 44 24 2c       	mov    0x2c(%rsp),%r8d
  402ab6:	41 81 f8 c8 00 00 00 	cmp    $0xc8,%r8d
  402abd:	74 37                	je     402af6 <submitr+0x6a2>
  402abf:	4c 8d 8c 24 40 60 00 	lea    0x6040(%rsp),%r9
  402ac6:	00 
  402ac7:	b9 c8 36 40 00       	mov    $0x4036c8,%ecx
  402acc:	48 c7 c2 ff ff ff ff 	mov    $0xffffffffffffffff,%rdx
  402ad3:	be 01 00 00 00       	mov    $0x1,%esi
  402ad8:	48 89 df             	mov    %rbx,%rdi
  402adb:	b8 00 00 00 00       	mov    $0x0,%eax
  402ae0:	e8 bb e3 ff ff       	callq  400ea0 <__sprintf_chk@plt>
  402ae5:	89 ef                	mov    %ebp,%edi
  402ae7:	e8 54 e2 ff ff       	callq  400d40 <close@plt>
  402aec:	b8 ff ff ff ff       	mov    $0xffffffff,%eax
  402af1:	e9 93 00 00 00       	jmpq   402b89 <submitr+0x735>
  402af6:	48 8d 74 24 40       	lea    0x40(%rsp),%rsi
  402afb:	48 89 df             	mov    %rbx,%rdi
  402afe:	e8 cd e1 ff ff       	callq  400cd0 <strcpy@plt>
  402b03:	89 ef                	mov    %ebp,%edi
  402b05:	e8 36 e2 ff ff       	callq  400d40 <close@plt>
  402b0a:	0f b6 03             	movzbl (%rbx),%eax
  402b0d:	ba 4f 00 00 00       	mov    $0x4f,%edx
  402b12:	29 c2                	sub    %eax,%edx
  402b14:	75 22                	jne    402b38 <submitr+0x6e4>
  402b16:	0f b6 4b 01          	movzbl 0x1(%rbx),%ecx
  402b1a:	b8 4b 00 00 00       	mov    $0x4b,%eax
  402b1f:	29 c8                	sub    %ecx,%eax
  402b21:	75 17                	jne    402b3a <submitr+0x6e6>
  402b23:	0f b6 4b 02          	movzbl 0x2(%rbx),%ecx
  402b27:	b8 0a 00 00 00       	mov    $0xa,%eax
  402b2c:	29 c8                	sub    %ecx,%eax
  402b2e:	75 0a                	jne    402b3a <submitr+0x6e6>
  402b30:	0f b6 43 03          	movzbl 0x3(%rbx),%eax
  402b34:	f7 d8                	neg    %eax
  402b36:	eb 02                	jmp    402b3a <submitr+0x6e6>
  402b38:	89 d0                	mov    %edx,%eax
  402b3a:	85 c0                	test   %eax,%eax
  402b3c:	74 38                	je     402b76 <submitr+0x722>
  402b3e:	bf 10 37 40 00       	mov    $0x403710,%edi
  402b43:	b9 05 00 00 00       	mov    $0x5,%ecx
  402b48:	48 89 de             	mov    %rbx,%rsi
  402b4b:	f3 a6                	repz cmpsb %es:(%rdi),%ds:(%rsi)
  402b4d:	0f 97 c1             	seta   %cl
  402b50:	0f 92 c0             	setb   %al
  402b53:	38 c1                	cmp    %al,%cl
  402b55:	74 26                	je     402b7d <submitr+0x729>
  402b57:	85 d2                	test   %edx,%edx
  402b59:	75 10                	jne    402b6b <submitr+0x717>
  402b5b:	0f b6 43 01          	movzbl 0x1(%rbx),%eax
  402b5f:	b2 4b                	mov    $0x4b,%dl
  402b61:	29 c2                	sub    %eax,%edx
  402b63:	75 06                	jne    402b6b <submitr+0x717>
  402b65:	0f b6 53 02          	movzbl 0x2(%rbx),%edx
  402b69:	f7 da                	neg    %edx
  402b6b:	85 d2                	test   %edx,%edx
  402b6d:	75 15                	jne    402b84 <submitr+0x730>
  402b6f:	b8 00 00 00 00       	mov    $0x0,%eax
  402b74:	eb 13                	jmp    402b89 <submitr+0x735>
  402b76:	b8 00 00 00 00       	mov    $0x0,%eax
  402b7b:	eb 0c                	jmp    402b89 <submitr+0x735>
  402b7d:	b8 00 00 00 00       	mov    $0x0,%eax
  402b82:	eb 05                	jmp    402b89 <submitr+0x735>
  402b84:	b8 ff ff ff ff       	mov    $0xffffffff,%eax
  402b89:	48 8b 9c 24 58 a0 00 	mov    0xa058(%rsp),%rbx
  402b90:	00 
  402b91:	64 48 33 1c 25 28 00 	xor    %fs:0x28,%rbx
  402b98:	00 00 
  402b9a:	74 05                	je     402ba1 <submitr+0x74d>
  402b9c:	e8 5f e1 ff ff       	callq  400d00 <__stack_chk_fail@plt>
  402ba1:	48 81 c4 68 a0 00 00 	add    $0xa068,%rsp
  402ba8:	5b                   	pop    %rbx
  402ba9:	5d                   	pop    %rbp
  402baa:	41 5c                	pop    %r12
  402bac:	41 5d                	pop    %r13
  402bae:	41 5e                	pop    %r14
  402bb0:	41 5f                	pop    %r15
  402bb2:	c3                   	retq   

0000000000402bb3 <init_timeout>:
  402bb3:	53                   	push   %rbx
  402bb4:	89 fb                	mov    %edi,%ebx
  402bb6:	85 ff                	test   %edi,%edi
  402bb8:	74 1f                	je     402bd9 <init_timeout+0x26>
  402bba:	85 ff                	test   %edi,%edi
  402bbc:	79 05                	jns    402bc3 <init_timeout+0x10>
  402bbe:	bb 00 00 00 00       	mov    $0x0,%ebx
  402bc3:	be b2 21 40 00       	mov    $0x4021b2,%esi
  402bc8:	bf 0e 00 00 00       	mov    $0xe,%edi
  402bcd:	e8 9e e1 ff ff       	callq  400d70 <signal@plt>
  402bd2:	89 df                	mov    %ebx,%edi
  402bd4:	e8 57 e1 ff ff       	callq  400d30 <alarm@plt>
  402bd9:	5b                   	pop    %rbx
  402bda:	c3                   	retq   

0000000000402bdb <init_driver>:
  402bdb:	55                   	push   %rbp
  402bdc:	53                   	push   %rbx
  402bdd:	48 83 ec 28          	sub    $0x28,%rsp
  402be1:	48 89 fd             	mov    %rdi,%rbp
  402be4:	64 48 8b 04 25 28 00 	mov    %fs:0x28,%rax
  402beb:	00 00 
  402bed:	48 89 44 24 18       	mov    %rax,0x18(%rsp)
  402bf2:	31 c0                	xor    %eax,%eax
  402bf4:	be 01 00 00 00       	mov    $0x1,%esi
  402bf9:	bf 0d 00 00 00       	mov    $0xd,%edi
  402bfe:	e8 6d e1 ff ff       	callq  400d70 <signal@plt>
  402c03:	be 01 00 00 00       	mov    $0x1,%esi
  402c08:	bf 1d 00 00 00       	mov    $0x1d,%edi
  402c0d:	e8 5e e1 ff ff       	callq  400d70 <signal@plt>
  402c12:	be 01 00 00 00       	mov    $0x1,%esi
  402c17:	bf 1d 00 00 00       	mov    $0x1d,%edi
  402c1c:	e8 4f e1 ff ff       	callq  400d70 <signal@plt>
  402c21:	ba 00 00 00 00       	mov    $0x0,%edx
  402c26:	be 01 00 00 00       	mov    $0x1,%esi
  402c2b:	bf 02 00 00 00       	mov    $0x2,%edi
  402c30:	e8 7b e2 ff ff       	callq  400eb0 <socket@plt>
  402c35:	89 c3                	mov    %eax,%ebx
  402c37:	85 c0                	test   %eax,%eax
  402c39:	79 4f                	jns    402c8a <init_driver+0xaf>
  402c3b:	48 b8 45 72 72 6f 72 	movabs $0x43203a726f727245,%rax
  402c42:	3a 20 43 
  402c45:	48 89 45 00          	mov    %rax,0x0(%rbp)
  402c49:	48 b8 6c 69 65 6e 74 	movabs $0x6e7520746e65696c,%rax
  402c50:	20 75 6e 
  402c53:	48 89 45 08          	mov    %rax,0x8(%rbp)
  402c57:	48 b8 61 62 6c 65 20 	movabs $0x206f7420656c6261,%rax
  402c5e:	74 6f 20 
  402c61:	48 89 45 10          	mov    %rax,0x10(%rbp)
  402c65:	48 b8 63 72 65 61 74 	movabs $0x7320657461657263,%rax
  402c6c:	65 20 73 
  402c6f:	48 89 45 18          	mov    %rax,0x18(%rbp)
  402c73:	c7 45 20 6f 63 6b 65 	movl   $0x656b636f,0x20(%rbp)
  402c7a:	66 c7 45 24 74 00    	movw   $0x74,0x24(%rbp)
  402c80:	b8 ff ff ff ff       	mov    $0xffffffff,%eax
  402c85:	e9 28 01 00 00       	jmpq   402db2 <init_driver+0x1d7>
  402c8a:	bf 15 37 40 00       	mov    $0x403715,%edi
  402c8f:	e8 ec e0 ff ff       	callq  400d80 <gethostbyname@plt>
  402c94:	48 85 c0             	test   %rax,%rax
  402c97:	75 68                	jne    402d01 <init_driver+0x126>
  402c99:	48 b8 45 72 72 6f 72 	movabs $0x44203a726f727245,%rax
  402ca0:	3a 20 44 
  402ca3:	48 89 45 00          	mov    %rax,0x0(%rbp)
  402ca7:	48 b8 4e 53 20 69 73 	movabs $0x6e7520736920534e,%rax
  402cae:	20 75 6e 
  402cb1:	48 89 45 08          	mov    %rax,0x8(%rbp)
  402cb5:	48 b8 61 62 6c 65 20 	movabs $0x206f7420656c6261,%rax
  402cbc:	74 6f 20 
  402cbf:	48 89 45 10          	mov    %rax,0x10(%rbp)
  402cc3:	48 b8 72 65 73 6f 6c 	movabs $0x2065766c6f736572,%rax
  402cca:	76 65 20 
  402ccd:	48 89 45 18          	mov    %rax,0x18(%rbp)
  402cd1:	48 b8 73 65 72 76 65 	movabs $0x6120726576726573,%rax
  402cd8:	72 20 61 
  402cdb:	48 89 45 20          	mov    %rax,0x20(%rbp)
  402cdf:	c7 45 28 64 64 72 65 	movl   $0x65726464,0x28(%rbp)
  402ce6:	66 c7 45 2c 73 73    	movw   $0x7373,0x2c(%rbp)
  402cec:	c6 45 2e 00          	movb   $0x0,0x2e(%rbp)
  402cf0:	89 df                	mov    %ebx,%edi
  402cf2:	e8 49 e0 ff ff       	callq  400d40 <close@plt>
  402cf7:	b8 ff ff ff ff       	mov    $0xffffffff,%eax
  402cfc:	e9 b1 00 00 00       	jmpq   402db2 <init_driver+0x1d7>
  402d01:	48 c7 04 24 00 00 00 	movq   $0x0,(%rsp)
  402d08:	00 
  402d09:	48 c7 44 24 08 00 00 	movq   $0x0,0x8(%rsp)
  402d10:	00 00 
  402d12:	66 c7 04 24 02 00    	movw   $0x2,(%rsp)
  402d18:	48 63 50 14          	movslq 0x14(%rax),%rdx
  402d1c:	48 8b 40 18          	mov    0x18(%rax),%rax
  402d20:	48 8b 30             	mov    (%rax),%rsi
  402d23:	48 8d 7c 24 04       	lea    0x4(%rsp),%rdi
  402d28:	b9 0c 00 00 00       	mov    $0xc,%ecx
  402d2d:	e8 5e e0 ff ff       	callq  400d90 <__memmove_chk@plt>
  402d32:	66 c7 44 24 02 3c 9a 	movw   $0x9a3c,0x2(%rsp)
  402d39:	ba 10 00 00 00       	mov    $0x10,%edx
  402d3e:	48 89 e6             	mov    %rsp,%rsi
  402d41:	89 df                	mov    %ebx,%edi
  402d43:	e8 38 e1 ff ff       	callq  400e80 <connect@plt>
  402d48:	85 c0                	test   %eax,%eax
  402d4a:	79 50                	jns    402d9c <init_driver+0x1c1>
  402d4c:	48 b8 45 72 72 6f 72 	movabs $0x55203a726f727245,%rax
  402d53:	3a 20 55 
  402d56:	48 89 45 00          	mov    %rax,0x0(%rbp)
  402d5a:	48 b8 6e 61 62 6c 65 	movabs $0x6f7420656c62616e,%rax
  402d61:	20 74 6f 
  402d64:	48 89 45 08          	mov    %rax,0x8(%rbp)
  402d68:	48 b8 20 63 6f 6e 6e 	movabs $0x7463656e6e6f6320,%rax
  402d6f:	65 63 74 
  402d72:	48 89 45 10          	mov    %rax,0x10(%rbp)
  402d76:	48 b8 20 74 6f 20 73 	movabs $0x76726573206f7420,%rax
  402d7d:	65 72 76 
  402d80:	48 89 45 18          	mov    %rax,0x18(%rbp)
  402d84:	66 c7 45 20 65 72    	movw   $0x7265,0x20(%rbp)
  402d8a:	c6 45 22 00          	movb   $0x0,0x22(%rbp)
  402d8e:	89 df                	mov    %ebx,%edi
  402d90:	e8 ab df ff ff       	callq  400d40 <close@plt>
  402d95:	b8 ff ff ff ff       	mov    $0xffffffff,%eax
  402d9a:	eb 16                	jmp    402db2 <init_driver+0x1d7>
  402d9c:	89 df                	mov    %ebx,%edi
  402d9e:	e8 9d df ff ff       	callq  400d40 <close@plt>
  402da3:	66 c7 45 00 4f 4b    	movw   $0x4b4f,0x0(%rbp)
  402da9:	c6 45 02 00          	movb   $0x0,0x2(%rbp)
  402dad:	b8 00 00 00 00       	mov    $0x0,%eax
  402db2:	48 8b 4c 24 18       	mov    0x18(%rsp),%rcx
  402db7:	64 48 33 0c 25 28 00 	xor    %fs:0x28,%rcx
  402dbe:	00 00 
  402dc0:	74 05                	je     402dc7 <init_driver+0x1ec>
  402dc2:	e8 39 df ff ff       	callq  400d00 <__stack_chk_fail@plt>
  402dc7:	48 83 c4 28          	add    $0x28,%rsp
  402dcb:	5b                   	pop    %rbx
  402dcc:	5d                   	pop    %rbp
  402dcd:	c3                   	retq   

0000000000402dce <driver_post>:
  402dce:	53                   	push   %rbx
  402dcf:	48 83 ec 10          	sub    $0x10,%rsp
  402dd3:	4c 89 cb             	mov    %r9,%rbx
  402dd6:	45 85 c0             	test   %r8d,%r8d
  402dd9:	74 27                	je     402e02 <driver_post+0x34>
  402ddb:	48 89 ca             	mov    %rcx,%rdx
  402dde:	be 24 37 40 00       	mov    $0x403724,%esi
  402de3:	bf 01 00 00 00       	mov    $0x1,%edi
  402de8:	b8 00 00 00 00       	mov    $0x0,%eax
  402ded:	e8 2e e0 ff ff       	callq  400e20 <__printf_chk@plt>
  402df2:	66 c7 03 4f 4b       	movw   $0x4b4f,(%rbx)
  402df7:	c6 43 02 00          	movb   $0x0,0x2(%rbx)
  402dfb:	b8 00 00 00 00       	mov    $0x0,%eax
  402e00:	eb 39                	jmp    402e3b <driver_post+0x6d>
  402e02:	48 85 ff             	test   %rdi,%rdi
  402e05:	74 26                	je     402e2d <driver_post+0x5f>
  402e07:	80 3f 00             	cmpb   $0x0,(%rdi)
  402e0a:	74 21                	je     402e2d <driver_post+0x5f>
  402e0c:	4c 89 0c 24          	mov    %r9,(%rsp)
  402e10:	49 89 c9             	mov    %rcx,%r9
  402e13:	49 89 d0             	mov    %rdx,%r8
  402e16:	48 89 f9             	mov    %rdi,%rcx
  402e19:	48 89 f2             	mov    %rsi,%rdx
  402e1c:	be 9a 3c 00 00       	mov    $0x3c9a,%esi
  402e21:	bf 15 37 40 00       	mov    $0x403715,%edi
  402e26:	e8 29 f6 ff ff       	callq  402454 <submitr>
  402e2b:	eb 0e                	jmp    402e3b <driver_post+0x6d>
  402e2d:	66 c7 03 4f 4b       	movw   $0x4b4f,(%rbx)
  402e32:	c6 43 02 00          	movb   $0x0,0x2(%rbx)
  402e36:	b8 00 00 00 00       	mov    $0x0,%eax
  402e3b:	48 83 c4 10          	add    $0x10,%rsp
  402e3f:	5b                   	pop    %rbx
  402e40:	c3                   	retq   

0000000000402e41 <check>:
  402e41:	89 f8                	mov    %edi,%eax
  402e43:	c1 e8 1c             	shr    $0x1c,%eax
  402e46:	85 c0                	test   %eax,%eax
  402e48:	74 1d                	je     402e67 <check+0x26>
  402e4a:	b9 00 00 00 00       	mov    $0x0,%ecx
  402e4f:	eb 0b                	jmp    402e5c <check+0x1b>
  402e51:	89 f8                	mov    %edi,%eax
  402e53:	d3 e8                	shr    %cl,%eax
  402e55:	3c 0a                	cmp    $0xa,%al
  402e57:	74 14                	je     402e6d <check+0x2c>
  402e59:	83 c1 08             	add    $0x8,%ecx
  402e5c:	83 f9 1f             	cmp    $0x1f,%ecx
  402e5f:	7e f0                	jle    402e51 <check+0x10>
  402e61:	b8 01 00 00 00       	mov    $0x1,%eax
  402e66:	c3                   	retq   
  402e67:	b8 00 00 00 00       	mov    $0x0,%eax
  402e6c:	c3                   	retq   
  402e6d:	b8 00 00 00 00       	mov    $0x0,%eax
  402e72:	c3                   	retq   

0000000000402e73 <gencookie>:
  402e73:	53                   	push   %rbx
  402e74:	83 c7 01             	add    $0x1,%edi
  402e77:	e8 34 de ff ff       	callq  400cb0 <srandom@plt>
  402e7c:	e8 5f df ff ff       	callq  400de0 <random@plt>
  402e81:	89 c3                	mov    %eax,%ebx
  402e83:	89 c7                	mov    %eax,%edi
  402e85:	e8 b7 ff ff ff       	callq  402e41 <check>
  402e8a:	85 c0                	test   %eax,%eax
  402e8c:	74 ee                	je     402e7c <gencookie+0x9>
  402e8e:	89 d8                	mov    %ebx,%eax
  402e90:	5b                   	pop    %rbx
  402e91:	c3                   	retq   
  402e92:	66 2e 0f 1f 84 00 00 	nopw   %cs:0x0(%rax,%rax,1)
  402e99:	00 00 00 
  402e9c:	0f 1f 40 00          	nopl   0x0(%rax)

0000000000402ea0 <__libc_csu_init>:
  402ea0:	41 57                	push   %r15
  402ea2:	41 89 ff             	mov    %edi,%r15d
  402ea5:	41 56                	push   %r14
  402ea7:	49 89 f6             	mov    %rsi,%r14
  402eaa:	41 55                	push   %r13
  402eac:	49 89 d5             	mov    %rdx,%r13
  402eaf:	41 54                	push   %r12
  402eb1:	4c 8d 25 58 1f 20 00 	lea    0x201f58(%rip),%r12        # 604e10 <__frame_dummy_init_array_entry>
  402eb8:	55                   	push   %rbp
  402eb9:	48 8d 2d 58 1f 20 00 	lea    0x201f58(%rip),%rbp        # 604e18 <__init_array_end>
  402ec0:	53                   	push   %rbx
  402ec1:	4c 29 e5             	sub    %r12,%rbp
  402ec4:	31 db                	xor    %ebx,%ebx
  402ec6:	48 c1 fd 03          	sar    $0x3,%rbp
  402eca:	48 83 ec 08          	sub    $0x8,%rsp
  402ece:	e8 8d dd ff ff       	callq  400c60 <_init>
  402ed3:	48 85 ed             	test   %rbp,%rbp
  402ed6:	74 1e                	je     402ef6 <__libc_csu_init+0x56>
  402ed8:	0f 1f 84 00 00 00 00 	nopl   0x0(%rax,%rax,1)
  402edf:	00 
  402ee0:	4c 89 ea             	mov    %r13,%rdx
  402ee3:	4c 89 f6             	mov    %r14,%rsi
  402ee6:	44 89 ff             	mov    %r15d,%edi
  402ee9:	41 ff 14 dc          	callq  *(%r12,%rbx,8)
  402eed:	48 83 c3 01          	add    $0x1,%rbx
  402ef1:	48 39 eb             	cmp    %rbp,%rbx
  402ef4:	75 ea                	jne    402ee0 <__libc_csu_init+0x40>
  402ef6:	48 83 c4 08          	add    $0x8,%rsp
  402efa:	5b                   	pop    %rbx
  402efb:	5d                   	pop    %rbp
  402efc:	41 5c                	pop    %r12
  402efe:	41 5d                	pop    %r13
  402f00:	41 5e                	pop    %r14
  402f02:	41 5f                	pop    %r15
  402f04:	c3                   	retq   
  402f05:	66 66 2e 0f 1f 84 00 	data32 nopw %cs:0x0(%rax,%rax,1)
  402f0c:	00 00 00 00 

0000000000402f10 <__libc_csu_fini>:
  402f10:	f3 c3                	repz retq 

Disassembly of section .fini:

0000000000402f14 <_fini>:
  402f14:	48 83 ec 08          	sub    $0x8,%rsp
  402f18:	48 83 c4 08          	add    $0x8,%rsp
  402f1c:	c3                   	retq   
