
ctarget:     file format elf64-x86-64


Disassembly of section .init:

0000000000400c60 <_init>:
  400c60:	48 83 ec 08          	sub    $0x8,%rsp
  400c64:	48 8b 05 8d 33 20 00 	mov    0x20338d(%rip),%rax        # 603ff8 <_DYNAMIC+0x1d0>
  400c6b:	48 85 c0             	test   %rax,%rax
  400c6e:	74 05                	je     400c75 <_init+0x15>
  400c70:	e8 2b 01 00 00       	callq  400da0 <__gmon_start__@plt>
  400c75:	48 83 c4 08          	add    $0x8,%rsp
  400c79:	c3                   	retq   

Disassembly of section .plt:

0000000000400c80 <strcasecmp@plt-0x10>:
  400c80:	ff 35 82 33 20 00    	pushq  0x203382(%rip)        # 604008 <_GLOBAL_OFFSET_TABLE_+0x8>
  400c86:	ff 25 84 33 20 00    	jmpq   *0x203384(%rip)        # 604010 <_GLOBAL_OFFSET_TABLE_+0x10>
  400c8c:	0f 1f 40 00          	nopl   0x0(%rax)

0000000000400c90 <strcasecmp@plt>:
  400c90:	ff 25 82 33 20 00    	jmpq   *0x203382(%rip)        # 604018 <_GLOBAL_OFFSET_TABLE_+0x18>
  400c96:	68 00 00 00 00       	pushq  $0x0
  400c9b:	e9 e0 ff ff ff       	jmpq   400c80 <_init+0x20>

0000000000400ca0 <__errno_location@plt>:
  400ca0:	ff 25 7a 33 20 00    	jmpq   *0x20337a(%rip)        # 604020 <_GLOBAL_OFFSET_TABLE_+0x20>
  400ca6:	68 01 00 00 00       	pushq  $0x1
  400cab:	e9 d0 ff ff ff       	jmpq   400c80 <_init+0x20>

0000000000400cb0 <srandom@plt>:
  400cb0:	ff 25 72 33 20 00    	jmpq   *0x203372(%rip)        # 604028 <_GLOBAL_OFFSET_TABLE_+0x28>
  400cb6:	68 02 00 00 00       	pushq  $0x2
  400cbb:	e9 c0 ff ff ff       	jmpq   400c80 <_init+0x20>

0000000000400cc0 <strncmp@plt>:
  400cc0:	ff 25 6a 33 20 00    	jmpq   *0x20336a(%rip)        # 604030 <_GLOBAL_OFFSET_TABLE_+0x30>
  400cc6:	68 03 00 00 00       	pushq  $0x3
  400ccb:	e9 b0 ff ff ff       	jmpq   400c80 <_init+0x20>

0000000000400cd0 <strcpy@plt>:
  400cd0:	ff 25 62 33 20 00    	jmpq   *0x203362(%rip)        # 604038 <_GLOBAL_OFFSET_TABLE_+0x38>
  400cd6:	68 04 00 00 00       	pushq  $0x4
  400cdb:	e9 a0 ff ff ff       	jmpq   400c80 <_init+0x20>

0000000000400ce0 <puts@plt>:
  400ce0:	ff 25 5a 33 20 00    	jmpq   *0x20335a(%rip)        # 604040 <_GLOBAL_OFFSET_TABLE_+0x40>
  400ce6:	68 05 00 00 00       	pushq  $0x5
  400ceb:	e9 90 ff ff ff       	jmpq   400c80 <_init+0x20>

0000000000400cf0 <write@plt>:
  400cf0:	ff 25 52 33 20 00    	jmpq   *0x203352(%rip)        # 604048 <_GLOBAL_OFFSET_TABLE_+0x48>
  400cf6:	68 06 00 00 00       	pushq  $0x6
  400cfb:	e9 80 ff ff ff       	jmpq   400c80 <_init+0x20>

0000000000400d00 <__stack_chk_fail@plt>:
  400d00:	ff 25 4a 33 20 00    	jmpq   *0x20334a(%rip)        # 604050 <_GLOBAL_OFFSET_TABLE_+0x50>
  400d06:	68 07 00 00 00       	pushq  $0x7
  400d0b:	e9 70 ff ff ff       	jmpq   400c80 <_init+0x20>

0000000000400d10 <mmap@plt>:
  400d10:	ff 25 42 33 20 00    	jmpq   *0x203342(%rip)        # 604058 <_GLOBAL_OFFSET_TABLE_+0x58>
  400d16:	68 08 00 00 00       	pushq  $0x8
  400d1b:	e9 60 ff ff ff       	jmpq   400c80 <_init+0x20>

0000000000400d20 <memset@plt>:
  400d20:	ff 25 3a 33 20 00    	jmpq   *0x20333a(%rip)        # 604060 <_GLOBAL_OFFSET_TABLE_+0x60>
  400d26:	68 09 00 00 00       	pushq  $0x9
  400d2b:	e9 50 ff ff ff       	jmpq   400c80 <_init+0x20>

0000000000400d30 <alarm@plt>:
  400d30:	ff 25 32 33 20 00    	jmpq   *0x203332(%rip)        # 604068 <_GLOBAL_OFFSET_TABLE_+0x68>
  400d36:	68 0a 00 00 00       	pushq  $0xa
  400d3b:	e9 40 ff ff ff       	jmpq   400c80 <_init+0x20>

0000000000400d40 <close@plt>:
  400d40:	ff 25 2a 33 20 00    	jmpq   *0x20332a(%rip)        # 604070 <_GLOBAL_OFFSET_TABLE_+0x70>
  400d46:	68 0b 00 00 00       	pushq  $0xb
  400d4b:	e9 30 ff ff ff       	jmpq   400c80 <_init+0x20>

0000000000400d50 <read@plt>:
  400d50:	ff 25 22 33 20 00    	jmpq   *0x203322(%rip)        # 604078 <_GLOBAL_OFFSET_TABLE_+0x78>
  400d56:	68 0c 00 00 00       	pushq  $0xc
  400d5b:	e9 20 ff ff ff       	jmpq   400c80 <_init+0x20>

0000000000400d60 <__libc_start_main@plt>:
  400d60:	ff 25 1a 33 20 00    	jmpq   *0x20331a(%rip)        # 604080 <_GLOBAL_OFFSET_TABLE_+0x80>
  400d66:	68 0d 00 00 00       	pushq  $0xd
  400d6b:	e9 10 ff ff ff       	jmpq   400c80 <_init+0x20>

0000000000400d70 <signal@plt>:
  400d70:	ff 25 12 33 20 00    	jmpq   *0x203312(%rip)        # 604088 <_GLOBAL_OFFSET_TABLE_+0x88>
  400d76:	68 0e 00 00 00       	pushq  $0xe
  400d7b:	e9 00 ff ff ff       	jmpq   400c80 <_init+0x20>

0000000000400d80 <gethostbyname@plt>:
  400d80:	ff 25 0a 33 20 00    	jmpq   *0x20330a(%rip)        # 604090 <_GLOBAL_OFFSET_TABLE_+0x90>
  400d86:	68 0f 00 00 00       	pushq  $0xf
  400d8b:	e9 f0 fe ff ff       	jmpq   400c80 <_init+0x20>

0000000000400d90 <__memmove_chk@plt>:
  400d90:	ff 25 02 33 20 00    	jmpq   *0x203302(%rip)        # 604098 <_GLOBAL_OFFSET_TABLE_+0x98>
  400d96:	68 10 00 00 00       	pushq  $0x10
  400d9b:	e9 e0 fe ff ff       	jmpq   400c80 <_init+0x20>

0000000000400da0 <__gmon_start__@plt>:
  400da0:	ff 25 fa 32 20 00    	jmpq   *0x2032fa(%rip)        # 6040a0 <_GLOBAL_OFFSET_TABLE_+0xa0>
  400da6:	68 11 00 00 00       	pushq  $0x11
  400dab:	e9 d0 fe ff ff       	jmpq   400c80 <_init+0x20>

0000000000400db0 <strtol@plt>:
  400db0:	ff 25 f2 32 20 00    	jmpq   *0x2032f2(%rip)        # 6040a8 <_GLOBAL_OFFSET_TABLE_+0xa8>
  400db6:	68 12 00 00 00       	pushq  $0x12
  400dbb:	e9 c0 fe ff ff       	jmpq   400c80 <_init+0x20>

0000000000400dc0 <memcpy@plt>:
  400dc0:	ff 25 ea 32 20 00    	jmpq   *0x2032ea(%rip)        # 6040b0 <_GLOBAL_OFFSET_TABLE_+0xb0>
  400dc6:	68 13 00 00 00       	pushq  $0x13
  400dcb:	e9 b0 fe ff ff       	jmpq   400c80 <_init+0x20>

0000000000400dd0 <time@plt>:
  400dd0:	ff 25 e2 32 20 00    	jmpq   *0x2032e2(%rip)        # 6040b8 <_GLOBAL_OFFSET_TABLE_+0xb8>
  400dd6:	68 14 00 00 00       	pushq  $0x14
  400ddb:	e9 a0 fe ff ff       	jmpq   400c80 <_init+0x20>

0000000000400de0 <random@plt>:
  400de0:	ff 25 da 32 20 00    	jmpq   *0x2032da(%rip)        # 6040c0 <_GLOBAL_OFFSET_TABLE_+0xc0>
  400de6:	68 15 00 00 00       	pushq  $0x15
  400deb:	e9 90 fe ff ff       	jmpq   400c80 <_init+0x20>

0000000000400df0 <_IO_getc@plt>:
  400df0:	ff 25 d2 32 20 00    	jmpq   *0x2032d2(%rip)        # 6040c8 <_GLOBAL_OFFSET_TABLE_+0xc8>
  400df6:	68 16 00 00 00       	pushq  $0x16
  400dfb:	e9 80 fe ff ff       	jmpq   400c80 <_init+0x20>

0000000000400e00 <__isoc99_sscanf@plt>:
  400e00:	ff 25 ca 32 20 00    	jmpq   *0x2032ca(%rip)        # 6040d0 <_GLOBAL_OFFSET_TABLE_+0xd0>
  400e06:	68 17 00 00 00       	pushq  $0x17
  400e0b:	e9 70 fe ff ff       	jmpq   400c80 <_init+0x20>

0000000000400e10 <munmap@plt>:
  400e10:	ff 25 c2 32 20 00    	jmpq   *0x2032c2(%rip)        # 6040d8 <_GLOBAL_OFFSET_TABLE_+0xd8>
  400e16:	68 18 00 00 00       	pushq  $0x18
  400e1b:	e9 60 fe ff ff       	jmpq   400c80 <_init+0x20>

0000000000400e20 <__printf_chk@plt>:
  400e20:	ff 25 ba 32 20 00    	jmpq   *0x2032ba(%rip)        # 6040e0 <_GLOBAL_OFFSET_TABLE_+0xe0>
  400e26:	68 19 00 00 00       	pushq  $0x19
  400e2b:	e9 50 fe ff ff       	jmpq   400c80 <_init+0x20>

0000000000400e30 <fopen@plt>:
  400e30:	ff 25 b2 32 20 00    	jmpq   *0x2032b2(%rip)        # 6040e8 <_GLOBAL_OFFSET_TABLE_+0xe8>
  400e36:	68 1a 00 00 00       	pushq  $0x1a
  400e3b:	e9 40 fe ff ff       	jmpq   400c80 <_init+0x20>

0000000000400e40 <getopt@plt>:
  400e40:	ff 25 aa 32 20 00    	jmpq   *0x2032aa(%rip)        # 6040f0 <_GLOBAL_OFFSET_TABLE_+0xf0>
  400e46:	68 1b 00 00 00       	pushq  $0x1b
  400e4b:	e9 30 fe ff ff       	jmpq   400c80 <_init+0x20>

0000000000400e50 <strtoul@plt>:
  400e50:	ff 25 a2 32 20 00    	jmpq   *0x2032a2(%rip)        # 6040f8 <_GLOBAL_OFFSET_TABLE_+0xf8>
  400e56:	68 1c 00 00 00       	pushq  $0x1c
  400e5b:	e9 20 fe ff ff       	jmpq   400c80 <_init+0x20>

0000000000400e60 <gethostname@plt>:
  400e60:	ff 25 9a 32 20 00    	jmpq   *0x20329a(%rip)        # 604100 <_GLOBAL_OFFSET_TABLE_+0x100>
  400e66:	68 1d 00 00 00       	pushq  $0x1d
  400e6b:	e9 10 fe ff ff       	jmpq   400c80 <_init+0x20>

0000000000400e70 <exit@plt>:
  400e70:	ff 25 92 32 20 00    	jmpq   *0x203292(%rip)        # 604108 <_GLOBAL_OFFSET_TABLE_+0x108>
  400e76:	68 1e 00 00 00       	pushq  $0x1e
  400e7b:	e9 00 fe ff ff       	jmpq   400c80 <_init+0x20>

0000000000400e80 <connect@plt>:
  400e80:	ff 25 8a 32 20 00    	jmpq   *0x20328a(%rip)        # 604110 <_GLOBAL_OFFSET_TABLE_+0x110>
  400e86:	68 1f 00 00 00       	pushq  $0x1f
  400e8b:	e9 f0 fd ff ff       	jmpq   400c80 <_init+0x20>

0000000000400e90 <__fprintf_chk@plt>:
  400e90:	ff 25 82 32 20 00    	jmpq   *0x203282(%rip)        # 604118 <_GLOBAL_OFFSET_TABLE_+0x118>
  400e96:	68 20 00 00 00       	pushq  $0x20
  400e9b:	e9 e0 fd ff ff       	jmpq   400c80 <_init+0x20>

0000000000400ea0 <__sprintf_chk@plt>:
  400ea0:	ff 25 7a 32 20 00    	jmpq   *0x20327a(%rip)        # 604120 <_GLOBAL_OFFSET_TABLE_+0x120>
  400ea6:	68 21 00 00 00       	pushq  $0x21
  400eab:	e9 d0 fd ff ff       	jmpq   400c80 <_init+0x20>

0000000000400eb0 <socket@plt>:
  400eb0:	ff 25 72 32 20 00    	jmpq   *0x203272(%rip)        # 604128 <_GLOBAL_OFFSET_TABLE_+0x128>
  400eb6:	68 22 00 00 00       	pushq  $0x22
  400ebb:	e9 c0 fd ff ff       	jmpq   400c80 <_init+0x20>

Disassembly of section .text:

0000000000400ec0 <_start>:
  400ec0:	31 ed                	xor    %ebp,%ebp
  400ec2:	49 89 d1             	mov    %rdx,%r9
  400ec5:	5e                   	pop    %rsi
  400ec6:	48 89 e2             	mov    %rsp,%rdx
  400ec9:	48 83 e4 f0          	and    $0xfffffffffffffff0,%rsp
  400ecd:	50                   	push   %rax
  400ece:	54                   	push   %rsp
  400ecf:	49 c7 c0 f0 2d 40 00 	mov    $0x402df0,%r8
  400ed6:	48 c7 c1 80 2d 40 00 	mov    $0x402d80,%rcx
  400edd:	48 c7 c7 bf 11 40 00 	mov    $0x4011bf,%rdi
  400ee4:	e8 77 fe ff ff       	callq  400d60 <__libc_start_main@plt>
  400ee9:	f4                   	hlt    
  400eea:	66 0f 1f 44 00 00    	nopw   0x0(%rax,%rax,1)

0000000000400ef0 <deregister_tm_clones>:
  400ef0:	b8 b7 44 60 00       	mov    $0x6044b7,%eax
  400ef5:	55                   	push   %rbp
  400ef6:	48 2d b0 44 60 00    	sub    $0x6044b0,%rax
  400efc:	48 83 f8 0e          	cmp    $0xe,%rax
  400f00:	48 89 e5             	mov    %rsp,%rbp
  400f03:	77 02                	ja     400f07 <deregister_tm_clones+0x17>
  400f05:	5d                   	pop    %rbp
  400f06:	c3                   	retq   
  400f07:	b8 00 00 00 00       	mov    $0x0,%eax
  400f0c:	48 85 c0             	test   %rax,%rax
  400f0f:	74 f4                	je     400f05 <deregister_tm_clones+0x15>
  400f11:	5d                   	pop    %rbp
  400f12:	bf b0 44 60 00       	mov    $0x6044b0,%edi
  400f17:	ff e0                	jmpq   *%rax
  400f19:	0f 1f 80 00 00 00 00 	nopl   0x0(%rax)

0000000000400f20 <register_tm_clones>:
  400f20:	b8 b0 44 60 00       	mov    $0x6044b0,%eax
  400f25:	55                   	push   %rbp
  400f26:	48 2d b0 44 60 00    	sub    $0x6044b0,%rax
  400f2c:	48 c1 f8 03          	sar    $0x3,%rax
  400f30:	48 89 e5             	mov    %rsp,%rbp
  400f33:	48 89 c2             	mov    %rax,%rdx
  400f36:	48 c1 ea 3f          	shr    $0x3f,%rdx
  400f3a:	48 01 d0             	add    %rdx,%rax
  400f3d:	48 d1 f8             	sar    %rax
  400f40:	75 02                	jne    400f44 <register_tm_clones+0x24>
  400f42:	5d                   	pop    %rbp
  400f43:	c3                   	retq   
  400f44:	ba 00 00 00 00       	mov    $0x0,%edx
  400f49:	48 85 d2             	test   %rdx,%rdx
  400f4c:	74 f4                	je     400f42 <register_tm_clones+0x22>
  400f4e:	5d                   	pop    %rbp
  400f4f:	48 89 c6             	mov    %rax,%rsi
  400f52:	bf b0 44 60 00       	mov    $0x6044b0,%edi
  400f57:	ff e2                	jmpq   *%rdx
  400f59:	0f 1f 80 00 00 00 00 	nopl   0x0(%rax)

0000000000400f60 <__do_global_dtors_aux>:
  400f60:	80 3d 89 35 20 00 00 	cmpb   $0x0,0x203589(%rip)        # 6044f0 <completed.6982>
  400f67:	75 11                	jne    400f7a <__do_global_dtors_aux+0x1a>
  400f69:	55                   	push   %rbp
  400f6a:	48 89 e5             	mov    %rsp,%rbp
  400f6d:	e8 7e ff ff ff       	callq  400ef0 <deregister_tm_clones>
  400f72:	5d                   	pop    %rbp
  400f73:	c6 05 76 35 20 00 01 	movb   $0x1,0x203576(%rip)        # 6044f0 <completed.6982>
  400f7a:	f3 c3                	repz retq 
  400f7c:	0f 1f 40 00          	nopl   0x0(%rax)

0000000000400f80 <frame_dummy>:
  400f80:	48 83 3d 98 2e 20 00 	cmpq   $0x0,0x202e98(%rip)        # 603e20 <__JCR_END__>
  400f87:	00 
  400f88:	74 1e                	je     400fa8 <frame_dummy+0x28>
  400f8a:	b8 00 00 00 00       	mov    $0x0,%eax
  400f8f:	48 85 c0             	test   %rax,%rax
  400f92:	74 14                	je     400fa8 <frame_dummy+0x28>
  400f94:	55                   	push   %rbp
  400f95:	bf 20 3e 60 00       	mov    $0x603e20,%edi
  400f9a:	48 89 e5             	mov    %rsp,%rbp
  400f9d:	ff d0                	callq  *%rax
  400f9f:	5d                   	pop    %rbp
  400fa0:	e9 7b ff ff ff       	jmpq   400f20 <register_tm_clones>
  400fa5:	0f 1f 00             	nopl   (%rax)
  400fa8:	e9 73 ff ff ff       	jmpq   400f20 <register_tm_clones>
  400fad:	0f 1f 00             	nopl   (%rax)

0000000000400fb0 <usage>:
  400fb0:	48 83 ec 08          	sub    $0x8,%rsp
  400fb4:	48 89 fa             	mov    %rdi,%rdx
  400fb7:	83 3d 6a 35 20 00 00 	cmpl   $0x0,0x20356a(%rip)        # 604528 <is_checker>
  400fbe:	74 3e                	je     400ffe <usage+0x4e>
  400fc0:	be 08 2e 40 00       	mov    $0x402e08,%esi
  400fc5:	bf 01 00 00 00       	mov    $0x1,%edi
  400fca:	b8 00 00 00 00       	mov    $0x0,%eax
  400fcf:	e8 4c fe ff ff       	callq  400e20 <__printf_chk@plt>
  400fd4:	bf 40 2e 40 00       	mov    $0x402e40,%edi
  400fd9:	e8 02 fd ff ff       	callq  400ce0 <puts@plt>
  400fde:	bf b8 2f 40 00       	mov    $0x402fb8,%edi
  400fe3:	e8 f8 fc ff ff       	callq  400ce0 <puts@plt>
  400fe8:	bf 68 2e 40 00       	mov    $0x402e68,%edi
  400fed:	e8 ee fc ff ff       	callq  400ce0 <puts@plt>
  400ff2:	bf d2 2f 40 00       	mov    $0x402fd2,%edi
  400ff7:	e8 e4 fc ff ff       	callq  400ce0 <puts@plt>
  400ffc:	eb 32                	jmp    401030 <usage+0x80>
  400ffe:	be ee 2f 40 00       	mov    $0x402fee,%esi
  401003:	bf 01 00 00 00       	mov    $0x1,%edi
  401008:	b8 00 00 00 00       	mov    $0x0,%eax
  40100d:	e8 0e fe ff ff       	callq  400e20 <__printf_chk@plt>
  401012:	bf 90 2e 40 00       	mov    $0x402e90,%edi
  401017:	e8 c4 fc ff ff       	callq  400ce0 <puts@plt>
  40101c:	bf b8 2e 40 00       	mov    $0x402eb8,%edi
  401021:	e8 ba fc ff ff       	callq  400ce0 <puts@plt>
  401026:	bf 0c 30 40 00       	mov    $0x40300c,%edi
  40102b:	e8 b0 fc ff ff       	callq  400ce0 <puts@plt>
  401030:	bf 00 00 00 00       	mov    $0x0,%edi
  401035:	e8 36 fe ff ff       	callq  400e70 <exit@plt>

000000000040103a <initialize_target>:
  40103a:	55                   	push   %rbp
  40103b:	53                   	push   %rbx
  40103c:	48 81 ec 18 21 00 00 	sub    $0x2118,%rsp
  401043:	89 f5                	mov    %esi,%ebp
  401045:	64 48 8b 04 25 28 00 	mov    %fs:0x28,%rax
  40104c:	00 00 
  40104e:	48 89 84 24 08 21 00 	mov    %rax,0x2108(%rsp)
  401055:	00 
  401056:	31 c0                	xor    %eax,%eax
  401058:	89 3d ba 34 20 00    	mov    %edi,0x2034ba(%rip)        # 604518 <check_level>
  40105e:	8b 3d 04 31 20 00    	mov    0x203104(%rip),%edi        # 604168 <target_id>
  401064:	e8 ea 1c 00 00       	callq  402d53 <gencookie>
  401069:	89 05 b5 34 20 00    	mov    %eax,0x2034b5(%rip)        # 604524 <cookie>
  40106f:	89 c7                	mov    %eax,%edi
  401071:	e8 dd 1c 00 00       	callq  402d53 <gencookie>
  401076:	89 05 a4 34 20 00    	mov    %eax,0x2034a4(%rip)        # 604520 <authkey>
  40107c:	8b 05 e6 30 20 00    	mov    0x2030e6(%rip),%eax        # 604168 <target_id>
  401082:	8d 78 01             	lea    0x1(%rax),%edi
  401085:	e8 26 fc ff ff       	callq  400cb0 <srandom@plt>
  40108a:	e8 51 fd ff ff       	callq  400de0 <random@plt>
  40108f:	89 c7                	mov    %eax,%edi
  401091:	e8 03 03 00 00       	callq  401399 <scramble>
  401096:	89 c3                	mov    %eax,%ebx
  401098:	85 ed                	test   %ebp,%ebp
  40109a:	74 18                	je     4010b4 <initialize_target+0x7a>
  40109c:	bf 00 00 00 00       	mov    $0x0,%edi
  4010a1:	e8 2a fd ff ff       	callq  400dd0 <time@plt>
  4010a6:	89 c7                	mov    %eax,%edi
  4010a8:	e8 03 fc ff ff       	callq  400cb0 <srandom@plt>
  4010ad:	e8 2e fd ff ff       	callq  400de0 <random@plt>
  4010b2:	eb 05                	jmp    4010b9 <initialize_target+0x7f>
  4010b4:	b8 00 00 00 00       	mov    $0x0,%eax
  4010b9:	01 c3                	add    %eax,%ebx
  4010bb:	0f b7 db             	movzwl %bx,%ebx
  4010be:	8d 04 dd 00 01 00 00 	lea    0x100(,%rbx,8),%eax
  4010c5:	89 c0                	mov    %eax,%eax
  4010c7:	48 89 05 d2 33 20 00 	mov    %rax,0x2033d2(%rip)        # 6044a0 <buf_offset>
  4010ce:	c6 05 73 40 20 00 63 	movb   $0x63,0x204073(%rip)        # 605148 <target_prefix>
  4010d5:	83 3d cc 33 20 00 00 	cmpl   $0x0,0x2033cc(%rip)        # 6044a8 <notify>
  4010dc:	0f 84 bb 00 00 00    	je     40119d <initialize_target+0x163>
  4010e2:	83 3d 3f 34 20 00 00 	cmpl   $0x0,0x20343f(%rip)        # 604528 <is_checker>
  4010e9:	0f 85 ae 00 00 00    	jne    40119d <initialize_target+0x163>
  4010ef:	be 00 01 00 00       	mov    $0x100,%esi
  4010f4:	48 89 e7             	mov    %rsp,%rdi
  4010f7:	e8 64 fd ff ff       	callq  400e60 <gethostname@plt>
  4010fc:	85 c0                	test   %eax,%eax
  4010fe:	74 25                	je     401125 <initialize_target+0xeb>
  401100:	bf e8 2e 40 00       	mov    $0x402ee8,%edi
  401105:	e8 d6 fb ff ff       	callq  400ce0 <puts@plt>
  40110a:	bf 08 00 00 00       	mov    $0x8,%edi
  40110f:	e8 5c fd ff ff       	callq  400e70 <exit@plt>
  401114:	48 89 e6             	mov    %rsp,%rsi
  401117:	e8 74 fb ff ff       	callq  400c90 <strcasecmp@plt>
  40111c:	85 c0                	test   %eax,%eax
  40111e:	74 21                	je     401141 <initialize_target+0x107>
  401120:	83 c3 01             	add    $0x1,%ebx
  401123:	eb 05                	jmp    40112a <initialize_target+0xf0>
  401125:	bb 00 00 00 00       	mov    $0x0,%ebx
  40112a:	48 63 c3             	movslq %ebx,%rax
  40112d:	48 8b 3c c5 80 41 60 	mov    0x604180(,%rax,8),%rdi
  401134:	00 
  401135:	48 85 ff             	test   %rdi,%rdi
  401138:	75 da                	jne    401114 <initialize_target+0xda>
  40113a:	b8 00 00 00 00       	mov    $0x0,%eax
  40113f:	eb 05                	jmp    401146 <initialize_target+0x10c>
  401141:	b8 01 00 00 00       	mov    $0x1,%eax
  401146:	85 c0                	test   %eax,%eax
  401148:	75 1c                	jne    401166 <initialize_target+0x12c>
  40114a:	48 89 e2             	mov    %rsp,%rdx
  40114d:	be 20 2f 40 00       	mov    $0x402f20,%esi
  401152:	bf 01 00 00 00       	mov    $0x1,%edi
  401157:	e8 c4 fc ff ff       	callq  400e20 <__printf_chk@plt>
  40115c:	bf 08 00 00 00       	mov    $0x8,%edi
  401161:	e8 0a fd ff ff       	callq  400e70 <exit@plt>
  401166:	48 8d bc 24 00 01 00 	lea    0x100(%rsp),%rdi
  40116d:	00 
  40116e:	e8 48 19 00 00       	callq  402abb <init_driver>
  401173:	85 c0                	test   %eax,%eax
  401175:	79 26                	jns    40119d <initialize_target+0x163>
  401177:	48 8d 94 24 00 01 00 	lea    0x100(%rsp),%rdx
  40117e:	00 
  40117f:	be 60 2f 40 00       	mov    $0x402f60,%esi
  401184:	bf 01 00 00 00       	mov    $0x1,%edi
  401189:	b8 00 00 00 00       	mov    $0x0,%eax
  40118e:	e8 8d fc ff ff       	callq  400e20 <__printf_chk@plt>
  401193:	bf 08 00 00 00       	mov    $0x8,%edi
  401198:	e8 d3 fc ff ff       	callq  400e70 <exit@plt>
  40119d:	48 8b 84 24 08 21 00 	mov    0x2108(%rsp),%rax
  4011a4:	00 
  4011a5:	64 48 33 04 25 28 00 	xor    %fs:0x28,%rax
  4011ac:	00 00 
  4011ae:	74 05                	je     4011b5 <initialize_target+0x17b>
  4011b0:	e8 4b fb ff ff       	callq  400d00 <__stack_chk_fail@plt>
  4011b5:	48 81 c4 18 21 00 00 	add    $0x2118,%rsp
  4011bc:	5b                   	pop    %rbx
  4011bd:	5d                   	pop    %rbp
  4011be:	c3                   	retq   

00000000004011bf <main>:
  4011bf:	41 56                	push   %r14
  4011c1:	41 55                	push   %r13
  4011c3:	41 54                	push   %r12
  4011c5:	55                   	push   %rbp
  4011c6:	53                   	push   %rbx
  4011c7:	41 89 fc             	mov    %edi,%r12d
  4011ca:	48 89 f3             	mov    %rsi,%rbx
  4011cd:	be 2e 1e 40 00       	mov    $0x401e2e,%esi
  4011d2:	bf 0b 00 00 00       	mov    $0xb,%edi
  4011d7:	e8 94 fb ff ff       	callq  400d70 <signal@plt>
  4011dc:	be e0 1d 40 00       	mov    $0x401de0,%esi
  4011e1:	bf 07 00 00 00       	mov    $0x7,%edi
  4011e6:	e8 85 fb ff ff       	callq  400d70 <signal@plt>
  4011eb:	be 7c 1e 40 00       	mov    $0x401e7c,%esi
  4011f0:	bf 04 00 00 00       	mov    $0x4,%edi
  4011f5:	e8 76 fb ff ff       	callq  400d70 <signal@plt>
  4011fa:	83 3d 27 33 20 00 00 	cmpl   $0x0,0x203327(%rip)        # 604528 <is_checker>
  401201:	74 20                	je     401223 <main+0x64>
  401203:	be ca 1e 40 00       	mov    $0x401eca,%esi
  401208:	bf 0e 00 00 00       	mov    $0xe,%edi
  40120d:	e8 5e fb ff ff       	callq  400d70 <signal@plt>
  401212:	bf 05 00 00 00       	mov    $0x5,%edi
  401217:	e8 14 fb ff ff       	callq  400d30 <alarm@plt>
  40121c:	bd 2a 30 40 00       	mov    $0x40302a,%ebp
  401221:	eb 05                	jmp    401228 <main+0x69>
  401223:	bd 25 30 40 00       	mov    $0x403025,%ebp
  401228:	48 8b 05 91 32 20 00 	mov    0x203291(%rip),%rax        # 6044c0 <stdin@@GLIBC_2.2.5>
  40122f:	48 89 05 da 32 20 00 	mov    %rax,0x2032da(%rip)        # 604510 <infile>
  401236:	41 bd 00 00 00 00    	mov    $0x0,%r13d
  40123c:	41 be 00 00 00 00    	mov    $0x0,%r14d
  401242:	e9 c6 00 00 00       	jmpq   40130d <main+0x14e>
  401247:	83 e8 61             	sub    $0x61,%eax
  40124a:	3c 10                	cmp    $0x10,%al
  40124c:	0f 87 9c 00 00 00    	ja     4012ee <main+0x12f>
  401252:	0f b6 c0             	movzbl %al,%eax
  401255:	ff 24 c5 70 30 40 00 	jmpq   *0x403070(,%rax,8)
  40125c:	48 8b 3b             	mov    (%rbx),%rdi
  40125f:	e8 4c fd ff ff       	callq  400fb0 <usage>
  401264:	be f5 32 40 00       	mov    $0x4032f5,%esi
  401269:	48 8b 3d 70 32 20 00 	mov    0x203270(%rip),%rdi        # 6044e0 <optarg@@GLIBC_2.2.5>
  401270:	e8 bb fb ff ff       	callq  400e30 <fopen@plt>
  401275:	48 89 05 94 32 20 00 	mov    %rax,0x203294(%rip)        # 604510 <infile>
  40127c:	48 85 c0             	test   %rax,%rax
  40127f:	0f 85 88 00 00 00    	jne    40130d <main+0x14e>
  401285:	48 8b 0d 54 32 20 00 	mov    0x203254(%rip),%rcx        # 6044e0 <optarg@@GLIBC_2.2.5>
  40128c:	ba 32 30 40 00       	mov    $0x403032,%edx
  401291:	be 01 00 00 00       	mov    $0x1,%esi
  401296:	48 8b 3d 4b 32 20 00 	mov    0x20324b(%rip),%rdi        # 6044e8 <stderr@@GLIBC_2.2.5>
  40129d:	e8 ee fb ff ff       	callq  400e90 <__fprintf_chk@plt>
  4012a2:	b8 01 00 00 00       	mov    $0x1,%eax
  4012a7:	e9 e4 00 00 00       	jmpq   401390 <main+0x1d1>
  4012ac:	ba 10 00 00 00       	mov    $0x10,%edx
  4012b1:	be 00 00 00 00       	mov    $0x0,%esi
  4012b6:	48 8b 3d 23 32 20 00 	mov    0x203223(%rip),%rdi        # 6044e0 <optarg@@GLIBC_2.2.5>
  4012bd:	e8 8e fb ff ff       	callq  400e50 <strtoul@plt>
  4012c2:	41 89 c6             	mov    %eax,%r14d
  4012c5:	eb 46                	jmp    40130d <main+0x14e>
  4012c7:	ba 0a 00 00 00       	mov    $0xa,%edx
  4012cc:	be 00 00 00 00       	mov    $0x0,%esi
  4012d1:	48 8b 3d 08 32 20 00 	mov    0x203208(%rip),%rdi        # 6044e0 <optarg@@GLIBC_2.2.5>
  4012d8:	e8 d3 fa ff ff       	callq  400db0 <strtol@plt>
  4012dd:	41 89 c5             	mov    %eax,%r13d
  4012e0:	eb 2b                	jmp    40130d <main+0x14e>
  4012e2:	c7 05 bc 31 20 00 00 	movl   $0x0,0x2031bc(%rip)        # 6044a8 <notify>
  4012e9:	00 00 00 
  4012ec:	eb 1f                	jmp    40130d <main+0x14e>
  4012ee:	0f be d2             	movsbl %dl,%edx
  4012f1:	be 4f 30 40 00       	mov    $0x40304f,%esi
  4012f6:	bf 01 00 00 00       	mov    $0x1,%edi
  4012fb:	b8 00 00 00 00       	mov    $0x0,%eax
  401300:	e8 1b fb ff ff       	callq  400e20 <__printf_chk@plt>
  401305:	48 8b 3b             	mov    (%rbx),%rdi
  401308:	e8 a3 fc ff ff       	callq  400fb0 <usage>
  40130d:	48 89 ea             	mov    %rbp,%rdx
  401310:	48 89 de             	mov    %rbx,%rsi
  401313:	44 89 e7             	mov    %r12d,%edi
  401316:	e8 25 fb ff ff       	callq  400e40 <getopt@plt>
  40131b:	89 c2                	mov    %eax,%edx
  40131d:	3c ff                	cmp    $0xff,%al
  40131f:	0f 85 22 ff ff ff    	jne    401247 <main+0x88>
  401325:	be 00 00 00 00       	mov    $0x0,%esi
  40132a:	44 89 ef             	mov    %r13d,%edi
  40132d:	e8 08 fd ff ff       	callq  40103a <initialize_target>
  401332:	83 3d ef 31 20 00 00 	cmpl   $0x0,0x2031ef(%rip)        # 604528 <is_checker>
  401339:	74 2a                	je     401365 <main+0x1a6>
  40133b:	44 3b 35 de 31 20 00 	cmp    0x2031de(%rip),%r14d        # 604520 <authkey>
  401342:	74 21                	je     401365 <main+0x1a6>
  401344:	44 89 f2             	mov    %r14d,%edx
  401347:	be 88 2f 40 00       	mov    $0x402f88,%esi
  40134c:	bf 01 00 00 00       	mov    $0x1,%edi
  401351:	b8 00 00 00 00       	mov    $0x0,%eax
  401356:	e8 c5 fa ff ff       	callq  400e20 <__printf_chk@plt>
  40135b:	b8 00 00 00 00       	mov    $0x0,%eax
  401360:	e8 06 07 00 00       	callq  401a6b <check_fail>
  401365:	8b 15 b9 31 20 00    	mov    0x2031b9(%rip),%edx        # 604524 <cookie>
  40136b:	be 62 30 40 00       	mov    $0x403062,%esi
  401370:	bf 01 00 00 00       	mov    $0x1,%edi
  401375:	b8 00 00 00 00       	mov    $0x0,%eax
  40137a:	e8 a1 fa ff ff       	callq  400e20 <__printf_chk@plt>
  40137f:	48 8b 3d 1a 31 20 00 	mov    0x20311a(%rip),%rdi        # 6044a0 <buf_offset>
  401386:	e8 3f 0c 00 00       	callq  401fca <stable_launch>
  40138b:	b8 00 00 00 00       	mov    $0x0,%eax
  401390:	5b                   	pop    %rbx
  401391:	5d                   	pop    %rbp
  401392:	41 5c                	pop    %r12
  401394:	41 5d                	pop    %r13
  401396:	41 5e                	pop    %r14
  401398:	c3                   	retq   

0000000000401399 <scramble>:
  401399:	b8 00 00 00 00       	mov    $0x0,%eax
  40139e:	eb 11                	jmp    4013b1 <scramble+0x18>
  4013a0:	69 c8 18 af 00 00    	imul   $0xaf18,%eax,%ecx
  4013a6:	01 f9                	add    %edi,%ecx
  4013a8:	89 c2                	mov    %eax,%edx
  4013aa:	89 4c 94 c8          	mov    %ecx,-0x38(%rsp,%rdx,4)
  4013ae:	83 c0 01             	add    $0x1,%eax
  4013b1:	83 f8 09             	cmp    $0x9,%eax
  4013b4:	76 ea                	jbe    4013a0 <scramble+0x7>
  4013b6:	8b 44 24 e0          	mov    -0x20(%rsp),%eax
  4013ba:	69 c0 82 c0 00 00    	imul   $0xc082,%eax,%eax
  4013c0:	89 44 24 e0          	mov    %eax,-0x20(%rsp)
  4013c4:	8b 44 24 dc          	mov    -0x24(%rsp),%eax
  4013c8:	69 c0 da f6 00 00    	imul   $0xf6da,%eax,%eax
  4013ce:	89 44 24 dc          	mov    %eax,-0x24(%rsp)
  4013d2:	8b 44 24 d0          	mov    -0x30(%rsp),%eax
  4013d6:	69 c0 63 63 00 00    	imul   $0x6363,%eax,%eax
  4013dc:	89 44 24 d0          	mov    %eax,-0x30(%rsp)
  4013e0:	8b 44 24 c8          	mov    -0x38(%rsp),%eax
  4013e4:	69 c0 f8 14 00 00    	imul   $0x14f8,%eax,%eax
  4013ea:	89 44 24 c8          	mov    %eax,-0x38(%rsp)
  4013ee:	8b 44 24 c8          	mov    -0x38(%rsp),%eax
  4013f2:	69 c0 52 da 00 00    	imul   $0xda52,%eax,%eax
  4013f8:	89 44 24 c8          	mov    %eax,-0x38(%rsp)
  4013fc:	8b 44 24 d8          	mov    -0x28(%rsp),%eax
  401400:	69 c0 46 82 00 00    	imul   $0x8246,%eax,%eax
  401406:	89 44 24 d8          	mov    %eax,-0x28(%rsp)
  40140a:	8b 44 24 ec          	mov    -0x14(%rsp),%eax
  40140e:	69 c0 34 c5 00 00    	imul   $0xc534,%eax,%eax
  401414:	89 44 24 ec          	mov    %eax,-0x14(%rsp)
  401418:	8b 44 24 cc          	mov    -0x34(%rsp),%eax
  40141c:	69 c0 07 35 00 00    	imul   $0x3507,%eax,%eax
  401422:	89 44 24 cc          	mov    %eax,-0x34(%rsp)
  401426:	8b 44 24 e0          	mov    -0x20(%rsp),%eax
  40142a:	69 c0 e0 80 00 00    	imul   $0x80e0,%eax,%eax
  401430:	89 44 24 e0          	mov    %eax,-0x20(%rsp)
  401434:	8b 44 24 e8          	mov    -0x18(%rsp),%eax
  401438:	69 c0 1a e0 00 00    	imul   $0xe01a,%eax,%eax
  40143e:	89 44 24 e8          	mov    %eax,-0x18(%rsp)
  401442:	8b 44 24 c8          	mov    -0x38(%rsp),%eax
  401446:	69 c0 9e 7e 00 00    	imul   $0x7e9e,%eax,%eax
  40144c:	89 44 24 c8          	mov    %eax,-0x38(%rsp)
  401450:	8b 44 24 d8          	mov    -0x28(%rsp),%eax
  401454:	69 c0 69 97 00 00    	imul   $0x9769,%eax,%eax
  40145a:	89 44 24 d8          	mov    %eax,-0x28(%rsp)
  40145e:	8b 44 24 d0          	mov    -0x30(%rsp),%eax
  401462:	69 c0 d5 da 00 00    	imul   $0xdad5,%eax,%eax
  401468:	89 44 24 d0          	mov    %eax,-0x30(%rsp)
  40146c:	8b 44 24 e4          	mov    -0x1c(%rsp),%eax
  401470:	69 c0 e8 f6 00 00    	imul   $0xf6e8,%eax,%eax
  401476:	89 44 24 e4          	mov    %eax,-0x1c(%rsp)
  40147a:	8b 44 24 d4          	mov    -0x2c(%rsp),%eax
  40147e:	69 c0 11 e1 00 00    	imul   $0xe111,%eax,%eax
  401484:	89 44 24 d4          	mov    %eax,-0x2c(%rsp)
  401488:	8b 44 24 c8          	mov    -0x38(%rsp),%eax
  40148c:	69 c0 78 5c 00 00    	imul   $0x5c78,%eax,%eax
  401492:	89 44 24 c8          	mov    %eax,-0x38(%rsp)
  401496:	8b 44 24 d0          	mov    -0x30(%rsp),%eax
  40149a:	69 c0 0d 6e 00 00    	imul   $0x6e0d,%eax,%eax
  4014a0:	89 44 24 d0          	mov    %eax,-0x30(%rsp)
  4014a4:	8b 44 24 c8          	mov    -0x38(%rsp),%eax
  4014a8:	69 c0 4b 75 00 00    	imul   $0x754b,%eax,%eax
  4014ae:	89 44 24 c8          	mov    %eax,-0x38(%rsp)
  4014b2:	8b 44 24 d8          	mov    -0x28(%rsp),%eax
  4014b6:	69 c0 b3 6b 00 00    	imul   $0x6bb3,%eax,%eax
  4014bc:	89 44 24 d8          	mov    %eax,-0x28(%rsp)
  4014c0:	8b 44 24 e4          	mov    -0x1c(%rsp),%eax
  4014c4:	69 c0 be 13 00 00    	imul   $0x13be,%eax,%eax
  4014ca:	89 44 24 e4          	mov    %eax,-0x1c(%rsp)
  4014ce:	8b 44 24 d0          	mov    -0x30(%rsp),%eax
  4014d2:	69 c0 86 c0 00 00    	imul   $0xc086,%eax,%eax
  4014d8:	89 44 24 d0          	mov    %eax,-0x30(%rsp)
  4014dc:	8b 44 24 c8          	mov    -0x38(%rsp),%eax
  4014e0:	69 c0 f9 05 00 00    	imul   $0x5f9,%eax,%eax
  4014e6:	89 44 24 c8          	mov    %eax,-0x38(%rsp)
  4014ea:	8b 44 24 ec          	mov    -0x14(%rsp),%eax
  4014ee:	69 c0 84 e2 00 00    	imul   $0xe284,%eax,%eax
  4014f4:	89 44 24 ec          	mov    %eax,-0x14(%rsp)
  4014f8:	8b 44 24 d8          	mov    -0x28(%rsp),%eax
  4014fc:	69 c0 19 32 00 00    	imul   $0x3219,%eax,%eax
  401502:	89 44 24 d8          	mov    %eax,-0x28(%rsp)
  401506:	8b 44 24 d4          	mov    -0x2c(%rsp),%eax
  40150a:	69 c0 6b 0e 00 00    	imul   $0xe6b,%eax,%eax
  401510:	89 44 24 d4          	mov    %eax,-0x2c(%rsp)
  401514:	8b 44 24 dc          	mov    -0x24(%rsp),%eax
  401518:	69 c0 b4 48 00 00    	imul   $0x48b4,%eax,%eax
  40151e:	89 44 24 dc          	mov    %eax,-0x24(%rsp)
  401522:	8b 44 24 ec          	mov    -0x14(%rsp),%eax
  401526:	69 c0 b6 74 00 00    	imul   $0x74b6,%eax,%eax
  40152c:	89 44 24 ec          	mov    %eax,-0x14(%rsp)
  401530:	8b 44 24 ec          	mov    -0x14(%rsp),%eax
  401534:	69 c0 13 de 00 00    	imul   $0xde13,%eax,%eax
  40153a:	89 44 24 ec          	mov    %eax,-0x14(%rsp)
  40153e:	8b 44 24 e8          	mov    -0x18(%rsp),%eax
  401542:	69 c0 a0 c1 00 00    	imul   $0xc1a0,%eax,%eax
  401548:	89 44 24 e8          	mov    %eax,-0x18(%rsp)
  40154c:	8b 44 24 dc          	mov    -0x24(%rsp),%eax
  401550:	69 c0 ea fc 00 00    	imul   $0xfcea,%eax,%eax
  401556:	89 44 24 dc          	mov    %eax,-0x24(%rsp)
  40155a:	8b 44 24 d0          	mov    -0x30(%rsp),%eax
  40155e:	69 c0 5f 69 00 00    	imul   $0x695f,%eax,%eax
  401564:	89 44 24 d0          	mov    %eax,-0x30(%rsp)
  401568:	8b 44 24 cc          	mov    -0x34(%rsp),%eax
  40156c:	69 c0 45 44 00 00    	imul   $0x4445,%eax,%eax
  401572:	89 44 24 cc          	mov    %eax,-0x34(%rsp)
  401576:	8b 44 24 dc          	mov    -0x24(%rsp),%eax
  40157a:	69 c0 b5 ac 00 00    	imul   $0xacb5,%eax,%eax
  401580:	89 44 24 dc          	mov    %eax,-0x24(%rsp)
  401584:	8b 44 24 d0          	mov    -0x30(%rsp),%eax
  401588:	69 c0 dd a8 00 00    	imul   $0xa8dd,%eax,%eax
  40158e:	89 44 24 d0          	mov    %eax,-0x30(%rsp)
  401592:	8b 44 24 e8          	mov    -0x18(%rsp),%eax
  401596:	69 c0 d5 43 00 00    	imul   $0x43d5,%eax,%eax
  40159c:	89 44 24 e8          	mov    %eax,-0x18(%rsp)
  4015a0:	8b 44 24 e4          	mov    -0x1c(%rsp),%eax
  4015a4:	69 c0 6d 5e 00 00    	imul   $0x5e6d,%eax,%eax
  4015aa:	89 44 24 e4          	mov    %eax,-0x1c(%rsp)
  4015ae:	8b 44 24 d0          	mov    -0x30(%rsp),%eax
  4015b2:	69 c0 a0 52 00 00    	imul   $0x52a0,%eax,%eax
  4015b8:	89 44 24 d0          	mov    %eax,-0x30(%rsp)
  4015bc:	8b 44 24 d8          	mov    -0x28(%rsp),%eax
  4015c0:	69 c0 15 8a 00 00    	imul   $0x8a15,%eax,%eax
  4015c6:	89 44 24 d8          	mov    %eax,-0x28(%rsp)
  4015ca:	8b 44 24 d4          	mov    -0x2c(%rsp),%eax
  4015ce:	69 c0 67 9f 00 00    	imul   $0x9f67,%eax,%eax
  4015d4:	89 44 24 d4          	mov    %eax,-0x2c(%rsp)
  4015d8:	8b 44 24 e8          	mov    -0x18(%rsp),%eax
  4015dc:	69 c0 88 98 00 00    	imul   $0x9888,%eax,%eax
  4015e2:	89 44 24 e8          	mov    %eax,-0x18(%rsp)
  4015e6:	8b 44 24 e0          	mov    -0x20(%rsp),%eax
  4015ea:	69 c0 62 ce 00 00    	imul   $0xce62,%eax,%eax
  4015f0:	89 44 24 e0          	mov    %eax,-0x20(%rsp)
  4015f4:	8b 44 24 d0          	mov    -0x30(%rsp),%eax
  4015f8:	69 c0 db 3a 00 00    	imul   $0x3adb,%eax,%eax
  4015fe:	89 44 24 d0          	mov    %eax,-0x30(%rsp)
  401602:	8b 44 24 e4          	mov    -0x1c(%rsp),%eax
  401606:	69 c0 5a c1 00 00    	imul   $0xc15a,%eax,%eax
  40160c:	89 44 24 e4          	mov    %eax,-0x1c(%rsp)
  401610:	8b 44 24 e8          	mov    -0x18(%rsp),%eax
  401614:	69 c0 a3 92 00 00    	imul   $0x92a3,%eax,%eax
  40161a:	89 44 24 e8          	mov    %eax,-0x18(%rsp)
  40161e:	8b 44 24 d8          	mov    -0x28(%rsp),%eax
  401622:	69 c0 eb ed 00 00    	imul   $0xedeb,%eax,%eax
  401628:	89 44 24 d8          	mov    %eax,-0x28(%rsp)
  40162c:	8b 44 24 e8          	mov    -0x18(%rsp),%eax
  401630:	69 c0 ab 25 00 00    	imul   $0x25ab,%eax,%eax
  401636:	89 44 24 e8          	mov    %eax,-0x18(%rsp)
  40163a:	8b 44 24 dc          	mov    -0x24(%rsp),%eax
  40163e:	69 c0 f0 e8 00 00    	imul   $0xe8f0,%eax,%eax
  401644:	89 44 24 dc          	mov    %eax,-0x24(%rsp)
  401648:	8b 44 24 dc          	mov    -0x24(%rsp),%eax
  40164c:	69 c0 b7 2e 00 00    	imul   $0x2eb7,%eax,%eax
  401652:	89 44 24 dc          	mov    %eax,-0x24(%rsp)
  401656:	8b 44 24 e4          	mov    -0x1c(%rsp),%eax
  40165a:	69 c0 82 23 00 00    	imul   $0x2382,%eax,%eax
  401660:	89 44 24 e4          	mov    %eax,-0x1c(%rsp)
  401664:	8b 44 24 d4          	mov    -0x2c(%rsp),%eax
  401668:	69 c0 0d ae 00 00    	imul   $0xae0d,%eax,%eax
  40166e:	89 44 24 d4          	mov    %eax,-0x2c(%rsp)
  401672:	8b 44 24 e8          	mov    -0x18(%rsp),%eax
  401676:	69 c0 31 94 00 00    	imul   $0x9431,%eax,%eax
  40167c:	89 44 24 e8          	mov    %eax,-0x18(%rsp)
  401680:	8b 44 24 dc          	mov    -0x24(%rsp),%eax
  401684:	69 c0 b2 6b 00 00    	imul   $0x6bb2,%eax,%eax
  40168a:	89 44 24 dc          	mov    %eax,-0x24(%rsp)
  40168e:	8b 44 24 d4          	mov    -0x2c(%rsp),%eax
  401692:	69 c0 e1 70 00 00    	imul   $0x70e1,%eax,%eax
  401698:	89 44 24 d4          	mov    %eax,-0x2c(%rsp)
  40169c:	8b 44 24 e0          	mov    -0x20(%rsp),%eax
  4016a0:	69 c0 f6 1b 00 00    	imul   $0x1bf6,%eax,%eax
  4016a6:	89 44 24 e0          	mov    %eax,-0x20(%rsp)
  4016aa:	8b 44 24 d8          	mov    -0x28(%rsp),%eax
  4016ae:	69 c0 f6 b1 00 00    	imul   $0xb1f6,%eax,%eax
  4016b4:	89 44 24 d8          	mov    %eax,-0x28(%rsp)
  4016b8:	8b 44 24 dc          	mov    -0x24(%rsp),%eax
  4016bc:	69 c0 1b be 00 00    	imul   $0xbe1b,%eax,%eax
  4016c2:	89 44 24 dc          	mov    %eax,-0x24(%rsp)
  4016c6:	8b 44 24 d0          	mov    -0x30(%rsp),%eax
  4016ca:	69 c0 bb 95 00 00    	imul   $0x95bb,%eax,%eax
  4016d0:	89 44 24 d0          	mov    %eax,-0x30(%rsp)
  4016d4:	8b 44 24 e4          	mov    -0x1c(%rsp),%eax
  4016d8:	69 c0 71 c3 00 00    	imul   $0xc371,%eax,%eax
  4016de:	89 44 24 e4          	mov    %eax,-0x1c(%rsp)
  4016e2:	8b 44 24 d4          	mov    -0x2c(%rsp),%eax
  4016e6:	69 c0 e5 11 00 00    	imul   $0x11e5,%eax,%eax
  4016ec:	89 44 24 d4          	mov    %eax,-0x2c(%rsp)
  4016f0:	8b 44 24 e8          	mov    -0x18(%rsp),%eax
  4016f4:	69 c0 0f da 00 00    	imul   $0xda0f,%eax,%eax
  4016fa:	89 44 24 e8          	mov    %eax,-0x18(%rsp)
  4016fe:	8b 44 24 d0          	mov    -0x30(%rsp),%eax
  401702:	69 c0 a3 e5 00 00    	imul   $0xe5a3,%eax,%eax
  401708:	89 44 24 d0          	mov    %eax,-0x30(%rsp)
  40170c:	8b 44 24 dc          	mov    -0x24(%rsp),%eax
  401710:	69 c0 1b 57 00 00    	imul   $0x571b,%eax,%eax
  401716:	89 44 24 dc          	mov    %eax,-0x24(%rsp)
  40171a:	8b 44 24 c8          	mov    -0x38(%rsp),%eax
  40171e:	69 c0 ab 69 00 00    	imul   $0x69ab,%eax,%eax
  401724:	89 44 24 c8          	mov    %eax,-0x38(%rsp)
  401728:	8b 44 24 ec          	mov    -0x14(%rsp),%eax
  40172c:	69 c0 39 64 00 00    	imul   $0x6439,%eax,%eax
  401732:	89 44 24 ec          	mov    %eax,-0x14(%rsp)
  401736:	8b 44 24 c8          	mov    -0x38(%rsp),%eax
  40173a:	69 c0 67 5d 00 00    	imul   $0x5d67,%eax,%eax
  401740:	89 44 24 c8          	mov    %eax,-0x38(%rsp)
  401744:	8b 44 24 d0          	mov    -0x30(%rsp),%eax
  401748:	69 c0 84 f4 00 00    	imul   $0xf484,%eax,%eax
  40174e:	89 44 24 d0          	mov    %eax,-0x30(%rsp)
  401752:	8b 44 24 e0          	mov    -0x20(%rsp),%eax
  401756:	69 c0 c1 1e 00 00    	imul   $0x1ec1,%eax,%eax
  40175c:	89 44 24 e0          	mov    %eax,-0x20(%rsp)
  401760:	8b 44 24 d8          	mov    -0x28(%rsp),%eax
  401764:	69 c0 6a d8 00 00    	imul   $0xd86a,%eax,%eax
  40176a:	89 44 24 d8          	mov    %eax,-0x28(%rsp)
  40176e:	8b 44 24 d0          	mov    -0x30(%rsp),%eax
  401772:	69 c0 fe 55 00 00    	imul   $0x55fe,%eax,%eax
  401778:	89 44 24 d0          	mov    %eax,-0x30(%rsp)
  40177c:	8b 44 24 e8          	mov    -0x18(%rsp),%eax
  401780:	69 c0 ea 9f 00 00    	imul   $0x9fea,%eax,%eax
  401786:	89 44 24 e8          	mov    %eax,-0x18(%rsp)
  40178a:	8b 44 24 e4          	mov    -0x1c(%rsp),%eax
  40178e:	69 c0 de a8 00 00    	imul   $0xa8de,%eax,%eax
  401794:	89 44 24 e4          	mov    %eax,-0x1c(%rsp)
  401798:	8b 44 24 e4          	mov    -0x1c(%rsp),%eax
  40179c:	69 c0 4d 88 00 00    	imul   $0x884d,%eax,%eax
  4017a2:	89 44 24 e4          	mov    %eax,-0x1c(%rsp)
  4017a6:	8b 44 24 dc          	mov    -0x24(%rsp),%eax
  4017aa:	69 c0 fc 56 00 00    	imul   $0x56fc,%eax,%eax
  4017b0:	89 44 24 dc          	mov    %eax,-0x24(%rsp)
  4017b4:	8b 44 24 cc          	mov    -0x34(%rsp),%eax
  4017b8:	69 c0 ae 95 00 00    	imul   $0x95ae,%eax,%eax
  4017be:	89 44 24 cc          	mov    %eax,-0x34(%rsp)
  4017c2:	8b 44 24 d4          	mov    -0x2c(%rsp),%eax
  4017c6:	69 c0 d4 a1 00 00    	imul   $0xa1d4,%eax,%eax
  4017cc:	89 44 24 d4          	mov    %eax,-0x2c(%rsp)
  4017d0:	8b 44 24 ec          	mov    -0x14(%rsp),%eax
  4017d4:	69 c0 b2 68 00 00    	imul   $0x68b2,%eax,%eax
  4017da:	89 44 24 ec          	mov    %eax,-0x14(%rsp)
  4017de:	8b 44 24 ec          	mov    -0x14(%rsp),%eax
  4017e2:	69 c0 78 6f 00 00    	imul   $0x6f78,%eax,%eax
  4017e8:	89 44 24 ec          	mov    %eax,-0x14(%rsp)
  4017ec:	8b 44 24 dc          	mov    -0x24(%rsp),%eax
  4017f0:	69 c0 0a 56 00 00    	imul   $0x560a,%eax,%eax
  4017f6:	89 44 24 dc          	mov    %eax,-0x24(%rsp)
  4017fa:	ba 00 00 00 00       	mov    $0x0,%edx
  4017ff:	b8 00 00 00 00       	mov    $0x0,%eax
  401804:	eb 0b                	jmp    401811 <scramble+0x478>
  401806:	89 d1                	mov    %edx,%ecx
  401808:	8b 4c 8c c8          	mov    -0x38(%rsp,%rcx,4),%ecx
  40180c:	01 c8                	add    %ecx,%eax
  40180e:	83 c2 01             	add    $0x1,%edx
  401811:	83 fa 09             	cmp    $0x9,%edx
  401814:	76 f0                	jbe    401806 <scramble+0x46d>
  401816:	f3 c3                	repz retq 

0000000000401818 <getbuf>:
  401818:	48 83 ec 18          	sub    $0x18,%rsp
  40181c:	48 89 e7             	mov    %rsp,%rdi
  40181f:	e8 7c 02 00 00       	callq  401aa0 <Gets>
  401824:	b8 01 00 00 00       	mov    $0x1,%eax
  401829:	48 83 c4 18          	add    $0x18,%rsp
  40182d:	c3                   	retq   

000000000040182e <touch1>:
  40182e:	48 83 ec 08          	sub    $0x8,%rsp
  401832:	c7 05 e0 2c 20 00 01 	movl   $0x1,0x202ce0(%rip)        # 60451c <vlevel>
  401839:	00 00 00 
  40183c:	bf 47 31 40 00       	mov    $0x403147,%edi
  401841:	e8 9a f4 ff ff       	callq  400ce0 <puts@plt>
  401846:	bf 01 00 00 00       	mov    $0x1,%edi
  40184b:	e8 a6 04 00 00       	callq  401cf6 <validate>
  401850:	bf 00 00 00 00       	mov    $0x0,%edi
  401855:	e8 16 f6 ff ff       	callq  400e70 <exit@plt>

000000000040185a <touch2>:
  40185a:	48 83 ec 08          	sub    $0x8,%rsp
  40185e:	89 fa                	mov    %edi,%edx
  401860:	c7 05 b2 2c 20 00 02 	movl   $0x2,0x202cb2(%rip)        # 60451c <vlevel>
  401867:	00 00 00 
  40186a:	3b 3d b4 2c 20 00    	cmp    0x202cb4(%rip),%edi        # 604524 <cookie>
  401870:	75 20                	jne    401892 <touch2+0x38>
  401872:	be 70 31 40 00       	mov    $0x403170,%esi
  401877:	bf 01 00 00 00       	mov    $0x1,%edi
  40187c:	b8 00 00 00 00       	mov    $0x0,%eax
  401881:	e8 9a f5 ff ff       	callq  400e20 <__printf_chk@plt>
  401886:	bf 02 00 00 00       	mov    $0x2,%edi
  40188b:	e8 66 04 00 00       	callq  401cf6 <validate>
  401890:	eb 1e                	jmp    4018b0 <touch2+0x56>
  401892:	be 98 31 40 00       	mov    $0x403198,%esi
  401897:	bf 01 00 00 00       	mov    $0x1,%edi
  40189c:	b8 00 00 00 00       	mov    $0x0,%eax
  4018a1:	e8 7a f5 ff ff       	callq  400e20 <__printf_chk@plt>
  4018a6:	bf 02 00 00 00       	mov    $0x2,%edi
  4018ab:	e8 08 05 00 00       	callq  401db8 <fail>
  4018b0:	bf 00 00 00 00       	mov    $0x0,%edi
  4018b5:	e8 b6 f5 ff ff       	callq  400e70 <exit@plt>

00000000004018ba <hexmatch>:
  4018ba:	41 54                	push   %r12
  4018bc:	55                   	push   %rbp
  4018bd:	53                   	push   %rbx
  4018be:	48 83 c4 80          	add    $0xffffffffffffff80,%rsp
  4018c2:	41 89 fc             	mov    %edi,%r12d
  4018c5:	48 89 f5             	mov    %rsi,%rbp
  4018c8:	64 48 8b 04 25 28 00 	mov    %fs:0x28,%rax
  4018cf:	00 00 
  4018d1:	48 89 44 24 78       	mov    %rax,0x78(%rsp)
  4018d6:	31 c0                	xor    %eax,%eax
  4018d8:	e8 03 f5 ff ff       	callq  400de0 <random@plt>
  4018dd:	48 89 c1             	mov    %rax,%rcx
  4018e0:	48 ba 0b d7 a3 70 3d 	movabs $0xa3d70a3d70a3d70b,%rdx
  4018e7:	0a d7 a3 
  4018ea:	48 f7 ea             	imul   %rdx
  4018ed:	48 01 ca             	add    %rcx,%rdx
  4018f0:	48 c1 fa 06          	sar    $0x6,%rdx
  4018f4:	48 89 c8             	mov    %rcx,%rax
  4018f7:	48 c1 f8 3f          	sar    $0x3f,%rax
  4018fb:	48 29 c2             	sub    %rax,%rdx
  4018fe:	48 8d 04 92          	lea    (%rdx,%rdx,4),%rax
  401902:	48 8d 04 80          	lea    (%rax,%rax,4),%rax
  401906:	48 c1 e0 02          	shl    $0x2,%rax
  40190a:	48 29 c1             	sub    %rax,%rcx
  40190d:	48 8d 1c 0c          	lea    (%rsp,%rcx,1),%rbx
  401911:	45 89 e0             	mov    %r12d,%r8d
  401914:	b9 64 31 40 00       	mov    $0x403164,%ecx
  401919:	48 c7 c2 ff ff ff ff 	mov    $0xffffffffffffffff,%rdx
  401920:	be 01 00 00 00       	mov    $0x1,%esi
  401925:	48 89 df             	mov    %rbx,%rdi
  401928:	b8 00 00 00 00       	mov    $0x0,%eax
  40192d:	e8 6e f5 ff ff       	callq  400ea0 <__sprintf_chk@plt>
  401932:	ba 09 00 00 00       	mov    $0x9,%edx
  401937:	48 89 de             	mov    %rbx,%rsi
  40193a:	48 89 ef             	mov    %rbp,%rdi
  40193d:	e8 7e f3 ff ff       	callq  400cc0 <strncmp@plt>
  401942:	85 c0                	test   %eax,%eax
  401944:	0f 94 c0             	sete   %al
  401947:	0f b6 c0             	movzbl %al,%eax
  40194a:	48 8b 74 24 78       	mov    0x78(%rsp),%rsi
  40194f:	64 48 33 34 25 28 00 	xor    %fs:0x28,%rsi
  401956:	00 00 
  401958:	74 05                	je     40195f <hexmatch+0xa5>
  40195a:	e8 a1 f3 ff ff       	callq  400d00 <__stack_chk_fail@plt>
  40195f:	48 83 ec 80          	sub    $0xffffffffffffff80,%rsp
  401963:	5b                   	pop    %rbx
  401964:	5d                   	pop    %rbp
  401965:	41 5c                	pop    %r12
  401967:	c3                   	retq   

0000000000401968 <touch3>:
  401968:	53                   	push   %rbx
  401969:	48 89 fb             	mov    %rdi,%rbx
  40196c:	c7 05 a6 2b 20 00 03 	movl   $0x3,0x202ba6(%rip)        # 60451c <vlevel>
  401973:	00 00 00 
  401976:	48 89 fe             	mov    %rdi,%rsi
  401979:	8b 3d a5 2b 20 00    	mov    0x202ba5(%rip),%edi        # 604524 <cookie>
  40197f:	e8 36 ff ff ff       	callq  4018ba <hexmatch>
  401984:	85 c0                	test   %eax,%eax
  401986:	74 23                	je     4019ab <touch3+0x43>
  401988:	48 89 da             	mov    %rbx,%rdx
  40198b:	be c0 31 40 00       	mov    $0x4031c0,%esi
  401990:	bf 01 00 00 00       	mov    $0x1,%edi
  401995:	b8 00 00 00 00       	mov    $0x0,%eax
  40199a:	e8 81 f4 ff ff       	callq  400e20 <__printf_chk@plt>
  40199f:	bf 03 00 00 00       	mov    $0x3,%edi
  4019a4:	e8 4d 03 00 00       	callq  401cf6 <validate>
  4019a9:	eb 21                	jmp    4019cc <touch3+0x64>
  4019ab:	48 89 da             	mov    %rbx,%rdx
  4019ae:	be e8 31 40 00       	mov    $0x4031e8,%esi
  4019b3:	bf 01 00 00 00       	mov    $0x1,%edi
  4019b8:	b8 00 00 00 00       	mov    $0x0,%eax
  4019bd:	e8 5e f4 ff ff       	callq  400e20 <__printf_chk@plt>
  4019c2:	bf 03 00 00 00       	mov    $0x3,%edi
  4019c7:	e8 ec 03 00 00       	callq  401db8 <fail>
  4019cc:	bf 00 00 00 00       	mov    $0x0,%edi
  4019d1:	e8 9a f4 ff ff       	callq  400e70 <exit@plt>

00000000004019d6 <test>:
  4019d6:	48 83 ec 08          	sub    $0x8,%rsp
  4019da:	b8 00 00 00 00       	mov    $0x0,%eax
  4019df:	e8 34 fe ff ff       	callq  401818 <getbuf>
  4019e4:	89 c2                	mov    %eax,%edx
  4019e6:	be 10 32 40 00       	mov    $0x403210,%esi
  4019eb:	bf 01 00 00 00       	mov    $0x1,%edi
  4019f0:	b8 00 00 00 00       	mov    $0x0,%eax
  4019f5:	e8 26 f4 ff ff       	callq  400e20 <__printf_chk@plt>
  4019fa:	48 83 c4 08          	add    $0x8,%rsp
  4019fe:	c3                   	retq   
  4019ff:	90                   	nop

0000000000401a00 <save_char>:
  401a00:	8b 05 3e 37 20 00    	mov    0x20373e(%rip),%eax        # 605144 <gets_cnt>
  401a06:	3d ff 03 00 00       	cmp    $0x3ff,%eax
  401a0b:	7f 49                	jg     401a56 <save_char+0x56>
  401a0d:	8d 14 40             	lea    (%rax,%rax,2),%edx
  401a10:	89 f9                	mov    %edi,%ecx
  401a12:	c0 e9 04             	shr    $0x4,%cl
  401a15:	83 e1 0f             	and    $0xf,%ecx
  401a18:	0f b6 b1 30 35 40 00 	movzbl 0x403530(%rcx),%esi
  401a1f:	48 63 ca             	movslq %edx,%rcx
  401a22:	40 88 b1 40 45 60 00 	mov    %sil,0x604540(%rcx)
  401a29:	8d 4a 01             	lea    0x1(%rdx),%ecx
  401a2c:	83 e7 0f             	and    $0xf,%edi
  401a2f:	0f b6 b7 30 35 40 00 	movzbl 0x403530(%rdi),%esi
  401a36:	48 63 c9             	movslq %ecx,%rcx
  401a39:	40 88 b1 40 45 60 00 	mov    %sil,0x604540(%rcx)
  401a40:	83 c2 02             	add    $0x2,%edx
  401a43:	48 63 d2             	movslq %edx,%rdx
  401a46:	c6 82 40 45 60 00 20 	movb   $0x20,0x604540(%rdx)
  401a4d:	83 c0 01             	add    $0x1,%eax
  401a50:	89 05 ee 36 20 00    	mov    %eax,0x2036ee(%rip)        # 605144 <gets_cnt>
  401a56:	f3 c3                	repz retq 

0000000000401a58 <save_term>:
  401a58:	8b 05 e6 36 20 00    	mov    0x2036e6(%rip),%eax        # 605144 <gets_cnt>
  401a5e:	8d 04 40             	lea    (%rax,%rax,2),%eax
  401a61:	48 98                	cltq   
  401a63:	c6 80 40 45 60 00 00 	movb   $0x0,0x604540(%rax)
  401a6a:	c3                   	retq   

0000000000401a6b <check_fail>:
  401a6b:	48 83 ec 08          	sub    $0x8,%rsp
  401a6f:	0f be 15 d2 36 20 00 	movsbl 0x2036d2(%rip),%edx        # 605148 <target_prefix>
  401a76:	41 b8 40 45 60 00    	mov    $0x604540,%r8d
  401a7c:	8b 0d 96 2a 20 00    	mov    0x202a96(%rip),%ecx        # 604518 <check_level>
  401a82:	be 33 32 40 00       	mov    $0x403233,%esi
  401a87:	bf 01 00 00 00       	mov    $0x1,%edi
  401a8c:	b8 00 00 00 00       	mov    $0x0,%eax
  401a91:	e8 8a f3 ff ff       	callq  400e20 <__printf_chk@plt>
  401a96:	bf 01 00 00 00       	mov    $0x1,%edi
  401a9b:	e8 d0 f3 ff ff       	callq  400e70 <exit@plt>

0000000000401aa0 <Gets>:
  401aa0:	41 54                	push   %r12
  401aa2:	55                   	push   %rbp
  401aa3:	53                   	push   %rbx
  401aa4:	49 89 fc             	mov    %rdi,%r12
  401aa7:	c7 05 93 36 20 00 00 	movl   $0x0,0x203693(%rip)        # 605144 <gets_cnt>
  401aae:	00 00 00 
  401ab1:	48 89 fb             	mov    %rdi,%rbx
  401ab4:	eb 11                	jmp    401ac7 <Gets+0x27>
  401ab6:	48 8d 6b 01          	lea    0x1(%rbx),%rbp
  401aba:	88 03                	mov    %al,(%rbx)
  401abc:	0f b6 f8             	movzbl %al,%edi
  401abf:	e8 3c ff ff ff       	callq  401a00 <save_char>
  401ac4:	48 89 eb             	mov    %rbp,%rbx
  401ac7:	48 8b 3d 42 2a 20 00 	mov    0x202a42(%rip),%rdi        # 604510 <infile>
  401ace:	e8 1d f3 ff ff       	callq  400df0 <_IO_getc@plt>
  401ad3:	83 f8 ff             	cmp    $0xffffffff,%eax
  401ad6:	74 05                	je     401add <Gets+0x3d>
  401ad8:	83 f8 0a             	cmp    $0xa,%eax
  401adb:	75 d9                	jne    401ab6 <Gets+0x16>
  401add:	c6 03 00             	movb   $0x0,(%rbx)
  401ae0:	b8 00 00 00 00       	mov    $0x0,%eax
  401ae5:	e8 6e ff ff ff       	callq  401a58 <save_term>
  401aea:	4c 89 e0             	mov    %r12,%rax
  401aed:	5b                   	pop    %rbx
  401aee:	5d                   	pop    %rbp
  401aef:	41 5c                	pop    %r12
  401af1:	c3                   	retq   

0000000000401af2 <notify_server>:
  401af2:	53                   	push   %rbx
  401af3:	48 81 ec 30 40 00 00 	sub    $0x4030,%rsp
  401afa:	64 48 8b 04 25 28 00 	mov    %fs:0x28,%rax
  401b01:	00 00 
  401b03:	48 89 84 24 28 40 00 	mov    %rax,0x4028(%rsp)
  401b0a:	00 
  401b0b:	31 c0                	xor    %eax,%eax
  401b0d:	83 3d 14 2a 20 00 00 	cmpl   $0x0,0x202a14(%rip)        # 604528 <is_checker>
  401b14:	0f 85 bb 01 00 00    	jne    401cd5 <notify_server+0x1e3>
  401b1a:	89 fb                	mov    %edi,%ebx
  401b1c:	8b 05 22 36 20 00    	mov    0x203622(%rip),%eax        # 605144 <gets_cnt>
  401b22:	83 c0 64             	add    $0x64,%eax
  401b25:	3d 00 20 00 00       	cmp    $0x2000,%eax
  401b2a:	7e 1e                	jle    401b4a <notify_server+0x58>
  401b2c:	be 68 33 40 00       	mov    $0x403368,%esi
  401b31:	bf 01 00 00 00       	mov    $0x1,%edi
  401b36:	b8 00 00 00 00       	mov    $0x0,%eax
  401b3b:	e8 e0 f2 ff ff       	callq  400e20 <__printf_chk@plt>
  401b40:	bf 01 00 00 00       	mov    $0x1,%edi
  401b45:	e8 26 f3 ff ff       	callq  400e70 <exit@plt>
  401b4a:	0f be 05 f7 35 20 00 	movsbl 0x2035f7(%rip),%eax        # 605148 <target_prefix>
  401b51:	83 3d 50 29 20 00 00 	cmpl   $0x0,0x202950(%rip)        # 6044a8 <notify>
  401b58:	74 08                	je     401b62 <notify_server+0x70>
  401b5a:	8b 15 c0 29 20 00    	mov    0x2029c0(%rip),%edx        # 604520 <authkey>
  401b60:	eb 05                	jmp    401b67 <notify_server+0x75>
  401b62:	ba ff ff ff ff       	mov    $0xffffffff,%edx
  401b67:	85 db                	test   %ebx,%ebx
  401b69:	74 08                	je     401b73 <notify_server+0x81>
  401b6b:	41 b9 49 32 40 00    	mov    $0x403249,%r9d
  401b71:	eb 06                	jmp    401b79 <notify_server+0x87>
  401b73:	41 b9 4e 32 40 00    	mov    $0x40324e,%r9d
  401b79:	48 c7 44 24 18 40 45 	movq   $0x604540,0x18(%rsp)
  401b80:	60 00 
  401b82:	89 74 24 10          	mov    %esi,0x10(%rsp)
  401b86:	89 44 24 08          	mov    %eax,0x8(%rsp)
  401b8a:	89 14 24             	mov    %edx,(%rsp)
  401b8d:	44 8b 05 d4 25 20 00 	mov    0x2025d4(%rip),%r8d        # 604168 <target_id>
  401b94:	b9 53 32 40 00       	mov    $0x403253,%ecx
  401b99:	ba 00 20 00 00       	mov    $0x2000,%edx
  401b9e:	be 01 00 00 00       	mov    $0x1,%esi
  401ba3:	48 8d 7c 24 20       	lea    0x20(%rsp),%rdi
  401ba8:	b8 00 00 00 00       	mov    $0x0,%eax
  401bad:	e8 ee f2 ff ff       	callq  400ea0 <__sprintf_chk@plt>
  401bb2:	83 3d ef 28 20 00 00 	cmpl   $0x0,0x2028ef(%rip)        # 6044a8 <notify>
  401bb9:	0f 84 86 00 00 00    	je     401c45 <notify_server+0x153>
  401bbf:	85 db                	test   %ebx,%ebx
  401bc1:	74 70                	je     401c33 <notify_server+0x141>
  401bc3:	4c 8d 8c 24 20 20 00 	lea    0x2020(%rsp),%r9
  401bca:	00 
  401bcb:	41 b8 00 00 00 00    	mov    $0x0,%r8d
  401bd1:	48 8d 4c 24 20       	lea    0x20(%rsp),%rcx
  401bd6:	48 8b 15 93 25 20 00 	mov    0x202593(%rip),%rdx        # 604170 <lab>
  401bdd:	48 8b 35 94 25 20 00 	mov    0x202594(%rip),%rsi        # 604178 <course>
  401be4:	48 8b 3d 75 25 20 00 	mov    0x202575(%rip),%rdi        # 604160 <user_id>
  401beb:	e8 be 10 00 00       	callq  402cae <driver_post>
  401bf0:	85 c0                	test   %eax,%eax
  401bf2:	79 26                	jns    401c1a <notify_server+0x128>
  401bf4:	48 8d 94 24 20 20 00 	lea    0x2020(%rsp),%rdx
  401bfb:	00 
  401bfc:	be 6f 32 40 00       	mov    $0x40326f,%esi
  401c01:	bf 01 00 00 00       	mov    $0x1,%edi
  401c06:	b8 00 00 00 00       	mov    $0x0,%eax
  401c0b:	e8 10 f2 ff ff       	callq  400e20 <__printf_chk@plt>
  401c10:	bf 01 00 00 00       	mov    $0x1,%edi
  401c15:	e8 56 f2 ff ff       	callq  400e70 <exit@plt>
  401c1a:	bf 98 33 40 00       	mov    $0x403398,%edi
  401c1f:	e8 bc f0 ff ff       	callq  400ce0 <puts@plt>
  401c24:	bf 7b 32 40 00       	mov    $0x40327b,%edi
  401c29:	e8 b2 f0 ff ff       	callq  400ce0 <puts@plt>
  401c2e:	e9 a2 00 00 00       	jmpq   401cd5 <notify_server+0x1e3>
  401c33:	bf 85 32 40 00       	mov    $0x403285,%edi
  401c38:	e8 a3 f0 ff ff       	callq  400ce0 <puts@plt>
  401c3d:	0f 1f 00             	nopl   (%rax)
  401c40:	e9 90 00 00 00       	jmpq   401cd5 <notify_server+0x1e3>
  401c45:	85 db                	test   %ebx,%ebx
  401c47:	74 09                	je     401c52 <notify_server+0x160>
  401c49:	ba 49 32 40 00       	mov    $0x403249,%edx
  401c4e:	66 90                	xchg   %ax,%ax
  401c50:	eb 05                	jmp    401c57 <notify_server+0x165>
  401c52:	ba 4e 32 40 00       	mov    $0x40324e,%edx
  401c57:	be d0 33 40 00       	mov    $0x4033d0,%esi
  401c5c:	bf 01 00 00 00       	mov    $0x1,%edi
  401c61:	b8 00 00 00 00       	mov    $0x0,%eax
  401c66:	e8 b5 f1 ff ff       	callq  400e20 <__printf_chk@plt>
  401c6b:	48 8b 15 ee 24 20 00 	mov    0x2024ee(%rip),%rdx        # 604160 <user_id>
  401c72:	be 8c 32 40 00       	mov    $0x40328c,%esi
  401c77:	bf 01 00 00 00       	mov    $0x1,%edi
  401c7c:	b8 00 00 00 00       	mov    $0x0,%eax
  401c81:	e8 9a f1 ff ff       	callq  400e20 <__printf_chk@plt>
  401c86:	48 8b 15 eb 24 20 00 	mov    0x2024eb(%rip),%rdx        # 604178 <course>
  401c8d:	be 99 32 40 00       	mov    $0x403299,%esi
  401c92:	bf 01 00 00 00       	mov    $0x1,%edi
  401c97:	b8 00 00 00 00       	mov    $0x0,%eax
  401c9c:	e8 7f f1 ff ff       	callq  400e20 <__printf_chk@plt>
  401ca1:	48 8b 15 c8 24 20 00 	mov    0x2024c8(%rip),%rdx        # 604170 <lab>
  401ca8:	be a5 32 40 00       	mov    $0x4032a5,%esi
  401cad:	bf 01 00 00 00       	mov    $0x1,%edi
  401cb2:	b8 00 00 00 00       	mov    $0x0,%eax
  401cb7:	e8 64 f1 ff ff       	callq  400e20 <__printf_chk@plt>
  401cbc:	48 8d 54 24 20       	lea    0x20(%rsp),%rdx
  401cc1:	be ae 32 40 00       	mov    $0x4032ae,%esi
  401cc6:	bf 01 00 00 00       	mov    $0x1,%edi
  401ccb:	b8 00 00 00 00       	mov    $0x0,%eax
  401cd0:	e8 4b f1 ff ff       	callq  400e20 <__printf_chk@plt>
  401cd5:	48 8b 84 24 28 40 00 	mov    0x4028(%rsp),%rax
  401cdc:	00 
  401cdd:	64 48 33 04 25 28 00 	xor    %fs:0x28,%rax
  401ce4:	00 00 
  401ce6:	74 05                	je     401ced <notify_server+0x1fb>
  401ce8:	e8 13 f0 ff ff       	callq  400d00 <__stack_chk_fail@plt>
  401ced:	48 81 c4 30 40 00 00 	add    $0x4030,%rsp
  401cf4:	5b                   	pop    %rbx
  401cf5:	c3                   	retq   

0000000000401cf6 <validate>:
  401cf6:	53                   	push   %rbx
  401cf7:	89 fb                	mov    %edi,%ebx
  401cf9:	83 3d 28 28 20 00 00 	cmpl   $0x0,0x202828(%rip)        # 604528 <is_checker>
  401d00:	74 6b                	je     401d6d <validate+0x77>
  401d02:	39 3d 14 28 20 00    	cmp    %edi,0x202814(%rip)        # 60451c <vlevel>
  401d08:	74 14                	je     401d1e <validate+0x28>
  401d0a:	bf ba 32 40 00       	mov    $0x4032ba,%edi
  401d0f:	e8 cc ef ff ff       	callq  400ce0 <puts@plt>
  401d14:	b8 00 00 00 00       	mov    $0x0,%eax
  401d19:	e8 4d fd ff ff       	callq  401a6b <check_fail>
  401d1e:	8b 15 f4 27 20 00    	mov    0x2027f4(%rip),%edx        # 604518 <check_level>
  401d24:	39 fa                	cmp    %edi,%edx
  401d26:	74 20                	je     401d48 <validate+0x52>
  401d28:	89 f9                	mov    %edi,%ecx
  401d2a:	be f8 33 40 00       	mov    $0x4033f8,%esi
  401d2f:	bf 01 00 00 00       	mov    $0x1,%edi
  401d34:	b8 00 00 00 00       	mov    $0x0,%eax
  401d39:	e8 e2 f0 ff ff       	callq  400e20 <__printf_chk@plt>
  401d3e:	b8 00 00 00 00       	mov    $0x0,%eax
  401d43:	e8 23 fd ff ff       	callq  401a6b <check_fail>
  401d48:	0f be 15 f9 33 20 00 	movsbl 0x2033f9(%rip),%edx        # 605148 <target_prefix>
  401d4f:	41 b8 40 45 60 00    	mov    $0x604540,%r8d
  401d55:	89 f9                	mov    %edi,%ecx
  401d57:	be d8 32 40 00       	mov    $0x4032d8,%esi
  401d5c:	bf 01 00 00 00       	mov    $0x1,%edi
  401d61:	b8 00 00 00 00       	mov    $0x0,%eax
  401d66:	e8 b5 f0 ff ff       	callq  400e20 <__printf_chk@plt>
  401d6b:	eb 49                	jmp    401db6 <validate+0xc0>
  401d6d:	39 3d a9 27 20 00    	cmp    %edi,0x2027a9(%rip)        # 60451c <vlevel>
  401d73:	74 18                	je     401d8d <validate+0x97>
  401d75:	bf ba 32 40 00       	mov    $0x4032ba,%edi
  401d7a:	e8 61 ef ff ff       	callq  400ce0 <puts@plt>
  401d7f:	89 de                	mov    %ebx,%esi
  401d81:	bf 00 00 00 00       	mov    $0x0,%edi
  401d86:	e8 67 fd ff ff       	callq  401af2 <notify_server>
  401d8b:	eb 29                	jmp    401db6 <validate+0xc0>
  401d8d:	0f be 0d b4 33 20 00 	movsbl 0x2033b4(%rip),%ecx        # 605148 <target_prefix>
  401d94:	89 fa                	mov    %edi,%edx
  401d96:	be 20 34 40 00       	mov    $0x403420,%esi
  401d9b:	bf 01 00 00 00       	mov    $0x1,%edi
  401da0:	b8 00 00 00 00       	mov    $0x0,%eax
  401da5:	e8 76 f0 ff ff       	callq  400e20 <__printf_chk@plt>
  401daa:	89 de                	mov    %ebx,%esi
  401dac:	bf 01 00 00 00       	mov    $0x1,%edi
  401db1:	e8 3c fd ff ff       	callq  401af2 <notify_server>
  401db6:	5b                   	pop    %rbx
  401db7:	c3                   	retq   

0000000000401db8 <fail>:
  401db8:	48 83 ec 08          	sub    $0x8,%rsp
  401dbc:	83 3d 65 27 20 00 00 	cmpl   $0x0,0x202765(%rip)        # 604528 <is_checker>
  401dc3:	74 0a                	je     401dcf <fail+0x17>
  401dc5:	b8 00 00 00 00       	mov    $0x0,%eax
  401dca:	e8 9c fc ff ff       	callq  401a6b <check_fail>
  401dcf:	89 fe                	mov    %edi,%esi
  401dd1:	bf 00 00 00 00       	mov    $0x0,%edi
  401dd6:	e8 17 fd ff ff       	callq  401af2 <notify_server>
  401ddb:	48 83 c4 08          	add    $0x8,%rsp
  401ddf:	c3                   	retq   

0000000000401de0 <bushandler>:
  401de0:	48 83 ec 08          	sub    $0x8,%rsp
  401de4:	83 3d 3d 27 20 00 00 	cmpl   $0x0,0x20273d(%rip)        # 604528 <is_checker>
  401deb:	74 14                	je     401e01 <bushandler+0x21>
  401ded:	bf ed 32 40 00       	mov    $0x4032ed,%edi
  401df2:	e8 e9 ee ff ff       	callq  400ce0 <puts@plt>
  401df7:	b8 00 00 00 00       	mov    $0x0,%eax
  401dfc:	e8 6a fc ff ff       	callq  401a6b <check_fail>
  401e01:	bf 58 34 40 00       	mov    $0x403458,%edi
  401e06:	e8 d5 ee ff ff       	callq  400ce0 <puts@plt>
  401e0b:	bf f7 32 40 00       	mov    $0x4032f7,%edi
  401e10:	e8 cb ee ff ff       	callq  400ce0 <puts@plt>
  401e15:	be 00 00 00 00       	mov    $0x0,%esi
  401e1a:	bf 00 00 00 00       	mov    $0x0,%edi
  401e1f:	e8 ce fc ff ff       	callq  401af2 <notify_server>
  401e24:	bf 01 00 00 00       	mov    $0x1,%edi
  401e29:	e8 42 f0 ff ff       	callq  400e70 <exit@plt>

0000000000401e2e <seghandler>:
  401e2e:	48 83 ec 08          	sub    $0x8,%rsp
  401e32:	83 3d ef 26 20 00 00 	cmpl   $0x0,0x2026ef(%rip)        # 604528 <is_checker>
  401e39:	74 14                	je     401e4f <seghandler+0x21>
  401e3b:	bf 0d 33 40 00       	mov    $0x40330d,%edi
  401e40:	e8 9b ee ff ff       	callq  400ce0 <puts@plt>
  401e45:	b8 00 00 00 00       	mov    $0x0,%eax
  401e4a:	e8 1c fc ff ff       	callq  401a6b <check_fail>
  401e4f:	bf 78 34 40 00       	mov    $0x403478,%edi
  401e54:	e8 87 ee ff ff       	callq  400ce0 <puts@plt>
  401e59:	bf f7 32 40 00       	mov    $0x4032f7,%edi
  401e5e:	e8 7d ee ff ff       	callq  400ce0 <puts@plt>
  401e63:	be 00 00 00 00       	mov    $0x0,%esi
  401e68:	bf 00 00 00 00       	mov    $0x0,%edi
  401e6d:	e8 80 fc ff ff       	callq  401af2 <notify_server>
  401e72:	bf 01 00 00 00       	mov    $0x1,%edi
  401e77:	e8 f4 ef ff ff       	callq  400e70 <exit@plt>

0000000000401e7c <illegalhandler>:
  401e7c:	48 83 ec 08          	sub    $0x8,%rsp
  401e80:	83 3d a1 26 20 00 00 	cmpl   $0x0,0x2026a1(%rip)        # 604528 <is_checker>
  401e87:	74 14                	je     401e9d <illegalhandler+0x21>
  401e89:	bf 20 33 40 00       	mov    $0x403320,%edi
  401e8e:	e8 4d ee ff ff       	callq  400ce0 <puts@plt>
  401e93:	b8 00 00 00 00       	mov    $0x0,%eax
  401e98:	e8 ce fb ff ff       	callq  401a6b <check_fail>
  401e9d:	bf a0 34 40 00       	mov    $0x4034a0,%edi
  401ea2:	e8 39 ee ff ff       	callq  400ce0 <puts@plt>
  401ea7:	bf f7 32 40 00       	mov    $0x4032f7,%edi
  401eac:	e8 2f ee ff ff       	callq  400ce0 <puts@plt>
  401eb1:	be 00 00 00 00       	mov    $0x0,%esi
  401eb6:	bf 00 00 00 00       	mov    $0x0,%edi
  401ebb:	e8 32 fc ff ff       	callq  401af2 <notify_server>
  401ec0:	bf 01 00 00 00       	mov    $0x1,%edi
  401ec5:	e8 a6 ef ff ff       	callq  400e70 <exit@plt>

0000000000401eca <sigalrmhandler>:
  401eca:	48 83 ec 08          	sub    $0x8,%rsp
  401ece:	83 3d 53 26 20 00 00 	cmpl   $0x0,0x202653(%rip)        # 604528 <is_checker>
  401ed5:	74 14                	je     401eeb <sigalrmhandler+0x21>
  401ed7:	bf 34 33 40 00       	mov    $0x403334,%edi
  401edc:	e8 ff ed ff ff       	callq  400ce0 <puts@plt>
  401ee1:	b8 00 00 00 00       	mov    $0x0,%eax
  401ee6:	e8 80 fb ff ff       	callq  401a6b <check_fail>
  401eeb:	ba 05 00 00 00       	mov    $0x5,%edx
  401ef0:	be d0 34 40 00       	mov    $0x4034d0,%esi
  401ef5:	bf 01 00 00 00       	mov    $0x1,%edi
  401efa:	b8 00 00 00 00       	mov    $0x0,%eax
  401eff:	e8 1c ef ff ff       	callq  400e20 <__printf_chk@plt>
  401f04:	be 00 00 00 00       	mov    $0x0,%esi
  401f09:	bf 00 00 00 00       	mov    $0x0,%edi
  401f0e:	e8 df fb ff ff       	callq  401af2 <notify_server>
  401f13:	bf 01 00 00 00       	mov    $0x1,%edi
  401f18:	e8 53 ef ff ff       	callq  400e70 <exit@plt>

0000000000401f1d <launch>:
  401f1d:	55                   	push   %rbp
  401f1e:	48 89 e5             	mov    %rsp,%rbp
  401f21:	48 83 ec 10          	sub    $0x10,%rsp
  401f25:	48 89 fa             	mov    %rdi,%rdx
  401f28:	64 48 8b 04 25 28 00 	mov    %fs:0x28,%rax
  401f2f:	00 00 
  401f31:	48 89 45 f8          	mov    %rax,-0x8(%rbp)
  401f35:	31 c0                	xor    %eax,%eax
  401f37:	48 8d 47 1e          	lea    0x1e(%rdi),%rax
  401f3b:	48 83 e0 f0          	and    $0xfffffffffffffff0,%rax
  401f3f:	48 29 c4             	sub    %rax,%rsp
  401f42:	48 8d 7c 24 0f       	lea    0xf(%rsp),%rdi
  401f47:	48 83 e7 f0          	and    $0xfffffffffffffff0,%rdi
  401f4b:	be f4 00 00 00       	mov    $0xf4,%esi
  401f50:	e8 cb ed ff ff       	callq  400d20 <memset@plt>
  401f55:	48 8b 05 64 25 20 00 	mov    0x202564(%rip),%rax        # 6044c0 <stdin@@GLIBC_2.2.5>
  401f5c:	48 39 05 ad 25 20 00 	cmp    %rax,0x2025ad(%rip)        # 604510 <infile>
  401f63:	75 14                	jne    401f79 <launch+0x5c>
  401f65:	be 3c 33 40 00       	mov    $0x40333c,%esi
  401f6a:	bf 01 00 00 00       	mov    $0x1,%edi
  401f6f:	b8 00 00 00 00       	mov    $0x0,%eax
  401f74:	e8 a7 ee ff ff       	callq  400e20 <__printf_chk@plt>
  401f79:	c7 05 99 25 20 00 00 	movl   $0x0,0x202599(%rip)        # 60451c <vlevel>
  401f80:	00 00 00 
  401f83:	b8 00 00 00 00       	mov    $0x0,%eax
  401f88:	e8 49 fa ff ff       	callq  4019d6 <test>
  401f8d:	83 3d 94 25 20 00 00 	cmpl   $0x0,0x202594(%rip)        # 604528 <is_checker>
  401f94:	74 14                	je     401faa <launch+0x8d>
  401f96:	bf 49 33 40 00       	mov    $0x403349,%edi
  401f9b:	e8 40 ed ff ff       	callq  400ce0 <puts@plt>
  401fa0:	b8 00 00 00 00       	mov    $0x0,%eax
  401fa5:	e8 c1 fa ff ff       	callq  401a6b <check_fail>
  401faa:	bf 54 33 40 00       	mov    $0x403354,%edi
  401faf:	e8 2c ed ff ff       	callq  400ce0 <puts@plt>
  401fb4:	48 8b 45 f8          	mov    -0x8(%rbp),%rax
  401fb8:	64 48 33 04 25 28 00 	xor    %fs:0x28,%rax
  401fbf:	00 00 
  401fc1:	74 05                	je     401fc8 <launch+0xab>
  401fc3:	e8 38 ed ff ff       	callq  400d00 <__stack_chk_fail@plt>
  401fc8:	c9                   	leaveq 
  401fc9:	c3                   	retq   

0000000000401fca <stable_launch>:
  401fca:	53                   	push   %rbx
  401fcb:	48 89 3d 36 25 20 00 	mov    %rdi,0x202536(%rip)        # 604508 <global_offset>
  401fd2:	41 b9 00 00 00 00    	mov    $0x0,%r9d
  401fd8:	41 b8 00 00 00 00    	mov    $0x0,%r8d
  401fde:	b9 32 01 00 00       	mov    $0x132,%ecx
  401fe3:	ba 07 00 00 00       	mov    $0x7,%edx
  401fe8:	be 00 00 10 00       	mov    $0x100000,%esi
  401fed:	bf 00 60 58 55       	mov    $0x55586000,%edi
  401ff2:	e8 19 ed ff ff       	callq  400d10 <mmap@plt>
  401ff7:	48 89 c3             	mov    %rax,%rbx
  401ffa:	48 3d 00 60 58 55    	cmp    $0x55586000,%rax
  402000:	74 37                	je     402039 <stable_launch+0x6f>
  402002:	be 00 00 10 00       	mov    $0x100000,%esi
  402007:	48 89 c7             	mov    %rax,%rdi
  40200a:	e8 01 ee ff ff       	callq  400e10 <munmap@plt>
  40200f:	b9 00 60 58 55       	mov    $0x55586000,%ecx
  402014:	ba 08 35 40 00       	mov    $0x403508,%edx
  402019:	be 01 00 00 00       	mov    $0x1,%esi
  40201e:	48 8b 3d c3 24 20 00 	mov    0x2024c3(%rip),%rdi        # 6044e8 <stderr@@GLIBC_2.2.5>
  402025:	b8 00 00 00 00       	mov    $0x0,%eax
  40202a:	e8 61 ee ff ff       	callq  400e90 <__fprintf_chk@plt>
  40202f:	bf 01 00 00 00       	mov    $0x1,%edi
  402034:	e8 37 ee ff ff       	callq  400e70 <exit@plt>
  402039:	48 8d 90 f8 ff 0f 00 	lea    0xffff8(%rax),%rdx
  402040:	48 89 15 09 31 20 00 	mov    %rdx,0x203109(%rip)        # 605150 <stack_top>
  402047:	48 89 e0             	mov    %rsp,%rax
  40204a:	48 89 d4             	mov    %rdx,%rsp
  40204d:	48 89 c2             	mov    %rax,%rdx
  402050:	48 89 15 a9 24 20 00 	mov    %rdx,0x2024a9(%rip)        # 604500 <global_save_stack>
  402057:	48 8b 3d aa 24 20 00 	mov    0x2024aa(%rip),%rdi        # 604508 <global_offset>
  40205e:	e8 ba fe ff ff       	callq  401f1d <launch>
  402063:	48 8b 05 96 24 20 00 	mov    0x202496(%rip),%rax        # 604500 <global_save_stack>
  40206a:	48 89 c4             	mov    %rax,%rsp
  40206d:	be 00 00 10 00       	mov    $0x100000,%esi
  402072:	48 89 df             	mov    %rbx,%rdi
  402075:	e8 96 ed ff ff       	callq  400e10 <munmap@plt>
  40207a:	5b                   	pop    %rbx
  40207b:	c3                   	retq   
  40207c:	0f 1f 40 00          	nopl   0x0(%rax)

0000000000402080 <rio_readinitb>:
  402080:	89 37                	mov    %esi,(%rdi)
  402082:	c7 47 04 00 00 00 00 	movl   $0x0,0x4(%rdi)
  402089:	48 8d 47 10          	lea    0x10(%rdi),%rax
  40208d:	48 89 47 08          	mov    %rax,0x8(%rdi)
  402091:	c3                   	retq   

0000000000402092 <sigalrm_handler>:
  402092:	48 83 ec 08          	sub    $0x8,%rsp
  402096:	b9 00 00 00 00       	mov    $0x0,%ecx
  40209b:	ba 40 35 40 00       	mov    $0x403540,%edx
  4020a0:	be 01 00 00 00       	mov    $0x1,%esi
  4020a5:	48 8b 3d 3c 24 20 00 	mov    0x20243c(%rip),%rdi        # 6044e8 <stderr@@GLIBC_2.2.5>
  4020ac:	b8 00 00 00 00       	mov    $0x0,%eax
  4020b1:	e8 da ed ff ff       	callq  400e90 <__fprintf_chk@plt>
  4020b6:	bf 01 00 00 00       	mov    $0x1,%edi
  4020bb:	e8 b0 ed ff ff       	callq  400e70 <exit@plt>

00000000004020c0 <rio_writen>:
  4020c0:	41 55                	push   %r13
  4020c2:	41 54                	push   %r12
  4020c4:	55                   	push   %rbp
  4020c5:	53                   	push   %rbx
  4020c6:	48 83 ec 08          	sub    $0x8,%rsp
  4020ca:	41 89 fc             	mov    %edi,%r12d
  4020cd:	48 89 f5             	mov    %rsi,%rbp
  4020d0:	49 89 d5             	mov    %rdx,%r13
  4020d3:	48 89 d3             	mov    %rdx,%rbx
  4020d6:	eb 28                	jmp    402100 <rio_writen+0x40>
  4020d8:	48 89 da             	mov    %rbx,%rdx
  4020db:	48 89 ee             	mov    %rbp,%rsi
  4020de:	44 89 e7             	mov    %r12d,%edi
  4020e1:	e8 0a ec ff ff       	callq  400cf0 <write@plt>
  4020e6:	48 85 c0             	test   %rax,%rax
  4020e9:	7f 0f                	jg     4020fa <rio_writen+0x3a>
  4020eb:	e8 b0 eb ff ff       	callq  400ca0 <__errno_location@plt>
  4020f0:	83 38 04             	cmpl   $0x4,(%rax)
  4020f3:	75 15                	jne    40210a <rio_writen+0x4a>
  4020f5:	b8 00 00 00 00       	mov    $0x0,%eax
  4020fa:	48 29 c3             	sub    %rax,%rbx
  4020fd:	48 01 c5             	add    %rax,%rbp
  402100:	48 85 db             	test   %rbx,%rbx
  402103:	75 d3                	jne    4020d8 <rio_writen+0x18>
  402105:	4c 89 e8             	mov    %r13,%rax
  402108:	eb 07                	jmp    402111 <rio_writen+0x51>
  40210a:	48 c7 c0 ff ff ff ff 	mov    $0xffffffffffffffff,%rax
  402111:	48 83 c4 08          	add    $0x8,%rsp
  402115:	5b                   	pop    %rbx
  402116:	5d                   	pop    %rbp
  402117:	41 5c                	pop    %r12
  402119:	41 5d                	pop    %r13
  40211b:	c3                   	retq   

000000000040211c <rio_read>:
  40211c:	41 56                	push   %r14
  40211e:	41 55                	push   %r13
  402120:	41 54                	push   %r12
  402122:	55                   	push   %rbp
  402123:	53                   	push   %rbx
  402124:	48 89 fb             	mov    %rdi,%rbx
  402127:	49 89 f6             	mov    %rsi,%r14
  40212a:	49 89 d5             	mov    %rdx,%r13
  40212d:	4c 8d 67 10          	lea    0x10(%rdi),%r12
  402131:	eb 2a                	jmp    40215d <rio_read+0x41>
  402133:	8b 3b                	mov    (%rbx),%edi
  402135:	ba 00 20 00 00       	mov    $0x2000,%edx
  40213a:	4c 89 e6             	mov    %r12,%rsi
  40213d:	e8 0e ec ff ff       	callq  400d50 <read@plt>
  402142:	89 43 04             	mov    %eax,0x4(%rbx)
  402145:	85 c0                	test   %eax,%eax
  402147:	79 0c                	jns    402155 <rio_read+0x39>
  402149:	e8 52 eb ff ff       	callq  400ca0 <__errno_location@plt>
  40214e:	83 38 04             	cmpl   $0x4,(%rax)
  402151:	74 0a                	je     40215d <rio_read+0x41>
  402153:	eb 37                	jmp    40218c <rio_read+0x70>
  402155:	85 c0                	test   %eax,%eax
  402157:	74 3c                	je     402195 <rio_read+0x79>
  402159:	4c 89 63 08          	mov    %r12,0x8(%rbx)
  40215d:	8b 6b 04             	mov    0x4(%rbx),%ebp
  402160:	85 ed                	test   %ebp,%ebp
  402162:	7e cf                	jle    402133 <rio_read+0x17>
  402164:	89 e8                	mov    %ebp,%eax
  402166:	4c 39 e8             	cmp    %r13,%rax
  402169:	72 03                	jb     40216e <rio_read+0x52>
  40216b:	44 89 ed             	mov    %r13d,%ebp
  40216e:	4c 63 e5             	movslq %ebp,%r12
  402171:	48 8b 73 08          	mov    0x8(%rbx),%rsi
  402175:	4c 89 e2             	mov    %r12,%rdx
  402178:	4c 89 f7             	mov    %r14,%rdi
  40217b:	e8 40 ec ff ff       	callq  400dc0 <memcpy@plt>
  402180:	4c 01 63 08          	add    %r12,0x8(%rbx)
  402184:	29 6b 04             	sub    %ebp,0x4(%rbx)
  402187:	4c 89 e0             	mov    %r12,%rax
  40218a:	eb 0e                	jmp    40219a <rio_read+0x7e>
  40218c:	48 c7 c0 ff ff ff ff 	mov    $0xffffffffffffffff,%rax
  402193:	eb 05                	jmp    40219a <rio_read+0x7e>
  402195:	b8 00 00 00 00       	mov    $0x0,%eax
  40219a:	5b                   	pop    %rbx
  40219b:	5d                   	pop    %rbp
  40219c:	41 5c                	pop    %r12
  40219e:	41 5d                	pop    %r13
  4021a0:	41 5e                	pop    %r14
  4021a2:	c3                   	retq   

00000000004021a3 <rio_readlineb>:
  4021a3:	41 55                	push   %r13
  4021a5:	41 54                	push   %r12
  4021a7:	55                   	push   %rbp
  4021a8:	53                   	push   %rbx
  4021a9:	48 83 ec 18          	sub    $0x18,%rsp
  4021ad:	49 89 fd             	mov    %rdi,%r13
  4021b0:	48 89 f5             	mov    %rsi,%rbp
  4021b3:	49 89 d4             	mov    %rdx,%r12
  4021b6:	bb 01 00 00 00       	mov    $0x1,%ebx
  4021bb:	eb 3e                	jmp    4021fb <rio_readlineb+0x58>
  4021bd:	ba 01 00 00 00       	mov    $0x1,%edx
  4021c2:	48 8d 74 24 0f       	lea    0xf(%rsp),%rsi
  4021c7:	4c 89 ef             	mov    %r13,%rdi
  4021ca:	e8 4d ff ff ff       	callq  40211c <rio_read>
  4021cf:	83 f8 01             	cmp    $0x1,%eax
  4021d2:	75 12                	jne    4021e6 <rio_readlineb+0x43>
  4021d4:	48 8d 55 01          	lea    0x1(%rbp),%rdx
  4021d8:	0f b6 44 24 0f       	movzbl 0xf(%rsp),%eax
  4021dd:	88 45 00             	mov    %al,0x0(%rbp)
  4021e0:	3c 0a                	cmp    $0xa,%al
  4021e2:	75 10                	jne    4021f4 <rio_readlineb+0x51>
  4021e4:	eb 1c                	jmp    402202 <rio_readlineb+0x5f>
  4021e6:	85 c0                	test   %eax,%eax
  4021e8:	75 24                	jne    40220e <rio_readlineb+0x6b>
  4021ea:	48 83 fb 01          	cmp    $0x1,%rbx
  4021ee:	66 90                	xchg   %ax,%ax
  4021f0:	75 13                	jne    402205 <rio_readlineb+0x62>
  4021f2:	eb 23                	jmp    402217 <rio_readlineb+0x74>
  4021f4:	48 83 c3 01          	add    $0x1,%rbx
  4021f8:	48 89 d5             	mov    %rdx,%rbp
  4021fb:	4c 39 e3             	cmp    %r12,%rbx
  4021fe:	72 bd                	jb     4021bd <rio_readlineb+0x1a>
  402200:	eb 03                	jmp    402205 <rio_readlineb+0x62>
  402202:	48 89 d5             	mov    %rdx,%rbp
  402205:	c6 45 00 00          	movb   $0x0,0x0(%rbp)
  402209:	48 89 d8             	mov    %rbx,%rax
  40220c:	eb 0e                	jmp    40221c <rio_readlineb+0x79>
  40220e:	48 c7 c0 ff ff ff ff 	mov    $0xffffffffffffffff,%rax
  402215:	eb 05                	jmp    40221c <rio_readlineb+0x79>
  402217:	b8 00 00 00 00       	mov    $0x0,%eax
  40221c:	48 83 c4 18          	add    $0x18,%rsp
  402220:	5b                   	pop    %rbx
  402221:	5d                   	pop    %rbp
  402222:	41 5c                	pop    %r12
  402224:	41 5d                	pop    %r13
  402226:	c3                   	retq   

0000000000402227 <urlencode>:
  402227:	41 54                	push   %r12
  402229:	55                   	push   %rbp
  40222a:	53                   	push   %rbx
  40222b:	48 83 ec 10          	sub    $0x10,%rsp
  40222f:	48 89 fb             	mov    %rdi,%rbx
  402232:	48 89 f5             	mov    %rsi,%rbp
  402235:	64 48 8b 04 25 28 00 	mov    %fs:0x28,%rax
  40223c:	00 00 
  40223e:	48 89 44 24 08       	mov    %rax,0x8(%rsp)
  402243:	31 c0                	xor    %eax,%eax
  402245:	48 c7 c1 ff ff ff ff 	mov    $0xffffffffffffffff,%rcx
  40224c:	f2 ae                	repnz scas %es:(%rdi),%al
  40224e:	48 f7 d1             	not    %rcx
  402251:	8d 41 ff             	lea    -0x1(%rcx),%eax
  402254:	e9 aa 00 00 00       	jmpq   402303 <urlencode+0xdc>
  402259:	44 0f b6 03          	movzbl (%rbx),%r8d
  40225d:	41 80 f8 2a          	cmp    $0x2a,%r8b
  402261:	0f 94 c2             	sete   %dl
  402264:	41 80 f8 2d          	cmp    $0x2d,%r8b
  402268:	0f 94 c0             	sete   %al
  40226b:	08 c2                	or     %al,%dl
  40226d:	75 24                	jne    402293 <urlencode+0x6c>
  40226f:	41 80 f8 2e          	cmp    $0x2e,%r8b
  402273:	74 1e                	je     402293 <urlencode+0x6c>
  402275:	41 80 f8 5f          	cmp    $0x5f,%r8b
  402279:	74 18                	je     402293 <urlencode+0x6c>
  40227b:	41 8d 40 d0          	lea    -0x30(%r8),%eax
  40227f:	3c 09                	cmp    $0x9,%al
  402281:	76 10                	jbe    402293 <urlencode+0x6c>
  402283:	41 8d 40 bf          	lea    -0x41(%r8),%eax
  402287:	3c 19                	cmp    $0x19,%al
  402289:	76 08                	jbe    402293 <urlencode+0x6c>
  40228b:	41 8d 40 9f          	lea    -0x61(%r8),%eax
  40228f:	3c 19                	cmp    $0x19,%al
  402291:	77 0a                	ja     40229d <urlencode+0x76>
  402293:	44 88 45 00          	mov    %r8b,0x0(%rbp)
  402297:	48 8d 6d 01          	lea    0x1(%rbp),%rbp
  40229b:	eb 5f                	jmp    4022fc <urlencode+0xd5>
  40229d:	41 80 f8 20          	cmp    $0x20,%r8b
  4022a1:	75 0a                	jne    4022ad <urlencode+0x86>
  4022a3:	c6 45 00 2b          	movb   $0x2b,0x0(%rbp)
  4022a7:	48 8d 6d 01          	lea    0x1(%rbp),%rbp
  4022ab:	eb 4f                	jmp    4022fc <urlencode+0xd5>
  4022ad:	41 8d 40 e0          	lea    -0x20(%r8),%eax
  4022b1:	3c 5f                	cmp    $0x5f,%al
  4022b3:	0f 96 c2             	setbe  %dl
  4022b6:	41 80 f8 09          	cmp    $0x9,%r8b
  4022ba:	0f 94 c0             	sete   %al
  4022bd:	08 c2                	or     %al,%dl
  4022bf:	74 50                	je     402311 <urlencode+0xea>
  4022c1:	45 0f b6 c0          	movzbl %r8b,%r8d
  4022c5:	b9 d8 35 40 00       	mov    $0x4035d8,%ecx
  4022ca:	ba 08 00 00 00       	mov    $0x8,%edx
  4022cf:	be 01 00 00 00       	mov    $0x1,%esi
  4022d4:	48 89 e7             	mov    %rsp,%rdi
  4022d7:	b8 00 00 00 00       	mov    $0x0,%eax
  4022dc:	e8 bf eb ff ff       	callq  400ea0 <__sprintf_chk@plt>
  4022e1:	0f b6 04 24          	movzbl (%rsp),%eax
  4022e5:	88 45 00             	mov    %al,0x0(%rbp)
  4022e8:	0f b6 44 24 01       	movzbl 0x1(%rsp),%eax
  4022ed:	88 45 01             	mov    %al,0x1(%rbp)
  4022f0:	0f b6 44 24 02       	movzbl 0x2(%rsp),%eax
  4022f5:	88 45 02             	mov    %al,0x2(%rbp)
  4022f8:	48 8d 6d 03          	lea    0x3(%rbp),%rbp
  4022fc:	48 83 c3 01          	add    $0x1,%rbx
  402300:	44 89 e0             	mov    %r12d,%eax
  402303:	44 8d 60 ff          	lea    -0x1(%rax),%r12d
  402307:	85 c0                	test   %eax,%eax
  402309:	0f 85 4a ff ff ff    	jne    402259 <urlencode+0x32>
  40230f:	eb 05                	jmp    402316 <urlencode+0xef>
  402311:	b8 ff ff ff ff       	mov    $0xffffffff,%eax
  402316:	48 8b 74 24 08       	mov    0x8(%rsp),%rsi
  40231b:	64 48 33 34 25 28 00 	xor    %fs:0x28,%rsi
  402322:	00 00 
  402324:	74 05                	je     40232b <urlencode+0x104>
  402326:	e8 d5 e9 ff ff       	callq  400d00 <__stack_chk_fail@plt>
  40232b:	48 83 c4 10          	add    $0x10,%rsp
  40232f:	5b                   	pop    %rbx
  402330:	5d                   	pop    %rbp
  402331:	41 5c                	pop    %r12
  402333:	c3                   	retq   

0000000000402334 <submitr>:
  402334:	41 57                	push   %r15
  402336:	41 56                	push   %r14
  402338:	41 55                	push   %r13
  40233a:	41 54                	push   %r12
  40233c:	55                   	push   %rbp
  40233d:	53                   	push   %rbx
  40233e:	48 81 ec 68 a0 00 00 	sub    $0xa068,%rsp
  402345:	49 89 fc             	mov    %rdi,%r12
  402348:	89 74 24 14          	mov    %esi,0x14(%rsp)
  40234c:	49 89 d7             	mov    %rdx,%r15
  40234f:	49 89 ce             	mov    %rcx,%r14
  402352:	4c 89 44 24 18       	mov    %r8,0x18(%rsp)
  402357:	4d 89 cd             	mov    %r9,%r13
  40235a:	48 8b 9c 24 a0 a0 00 	mov    0xa0a0(%rsp),%rbx
  402361:	00 
  402362:	64 48 8b 04 25 28 00 	mov    %fs:0x28,%rax
  402369:	00 00 
  40236b:	48 89 84 24 58 a0 00 	mov    %rax,0xa058(%rsp)
  402372:	00 
  402373:	31 c0                	xor    %eax,%eax
  402375:	c7 44 24 2c 00 00 00 	movl   $0x0,0x2c(%rsp)
  40237c:	00 
  40237d:	ba 00 00 00 00       	mov    $0x0,%edx
  402382:	be 01 00 00 00       	mov    $0x1,%esi
  402387:	bf 02 00 00 00       	mov    $0x2,%edi
  40238c:	e8 1f eb ff ff       	callq  400eb0 <socket@plt>
  402391:	89 c5                	mov    %eax,%ebp
  402393:	85 c0                	test   %eax,%eax
  402395:	79 4e                	jns    4023e5 <submitr+0xb1>
  402397:	48 b8 45 72 72 6f 72 	movabs $0x43203a726f727245,%rax
  40239e:	3a 20 43 
  4023a1:	48 89 03             	mov    %rax,(%rbx)
  4023a4:	48 b8 6c 69 65 6e 74 	movabs $0x6e7520746e65696c,%rax
  4023ab:	20 75 6e 
  4023ae:	48 89 43 08          	mov    %rax,0x8(%rbx)
  4023b2:	48 b8 61 62 6c 65 20 	movabs $0x206f7420656c6261,%rax
  4023b9:	74 6f 20 
  4023bc:	48 89 43 10          	mov    %rax,0x10(%rbx)
  4023c0:	48 b8 63 72 65 61 74 	movabs $0x7320657461657263,%rax
  4023c7:	65 20 73 
  4023ca:	48 89 43 18          	mov    %rax,0x18(%rbx)
  4023ce:	c7 43 20 6f 63 6b 65 	movl   $0x656b636f,0x20(%rbx)
  4023d5:	66 c7 43 24 74 00    	movw   $0x74,0x24(%rbx)
  4023db:	b8 ff ff ff ff       	mov    $0xffffffff,%eax
  4023e0:	e9 84 06 00 00       	jmpq   402a69 <submitr+0x735>
  4023e5:	4c 89 e7             	mov    %r12,%rdi
  4023e8:	e8 93 e9 ff ff       	callq  400d80 <gethostbyname@plt>
  4023ed:	48 85 c0             	test   %rax,%rax
  4023f0:	75 67                	jne    402459 <submitr+0x125>
  4023f2:	48 b8 45 72 72 6f 72 	movabs $0x44203a726f727245,%rax
  4023f9:	3a 20 44 
  4023fc:	48 89 03             	mov    %rax,(%rbx)
  4023ff:	48 b8 4e 53 20 69 73 	movabs $0x6e7520736920534e,%rax
  402406:	20 75 6e 
  402409:	48 89 43 08          	mov    %rax,0x8(%rbx)
  40240d:	48 b8 61 62 6c 65 20 	movabs $0x206f7420656c6261,%rax
  402414:	74 6f 20 
  402417:	48 89 43 10          	mov    %rax,0x10(%rbx)
  40241b:	48 b8 72 65 73 6f 6c 	movabs $0x2065766c6f736572,%rax
  402422:	76 65 20 
  402425:	48 89 43 18          	mov    %rax,0x18(%rbx)
  402429:	48 b8 73 65 72 76 65 	movabs $0x6120726576726573,%rax
  402430:	72 20 61 
  402433:	48 89 43 20          	mov    %rax,0x20(%rbx)
  402437:	c7 43 28 64 64 72 65 	movl   $0x65726464,0x28(%rbx)
  40243e:	66 c7 43 2c 73 73    	movw   $0x7373,0x2c(%rbx)
  402444:	c6 43 2e 00          	movb   $0x0,0x2e(%rbx)
  402448:	89 ef                	mov    %ebp,%edi
  40244a:	e8 f1 e8 ff ff       	callq  400d40 <close@plt>
  40244f:	b8 ff ff ff ff       	mov    $0xffffffff,%eax
  402454:	e9 10 06 00 00       	jmpq   402a69 <submitr+0x735>
  402459:	48 c7 44 24 30 00 00 	movq   $0x0,0x30(%rsp)
  402460:	00 00 
  402462:	48 c7 44 24 38 00 00 	movq   $0x0,0x38(%rsp)
  402469:	00 00 
  40246b:	66 c7 44 24 30 02 00 	movw   $0x2,0x30(%rsp)
  402472:	48 63 50 14          	movslq 0x14(%rax),%rdx
  402476:	48 8b 40 18          	mov    0x18(%rax),%rax
  40247a:	48 8b 30             	mov    (%rax),%rsi
  40247d:	48 8d 7c 24 34       	lea    0x34(%rsp),%rdi
  402482:	b9 0c 00 00 00       	mov    $0xc,%ecx
  402487:	e8 04 e9 ff ff       	callq  400d90 <__memmove_chk@plt>
  40248c:	0f b7 44 24 14       	movzwl 0x14(%rsp),%eax
  402491:	66 c1 c8 08          	ror    $0x8,%ax
  402495:	66 89 44 24 32       	mov    %ax,0x32(%rsp)
  40249a:	ba 10 00 00 00       	mov    $0x10,%edx
  40249f:	48 8d 74 24 30       	lea    0x30(%rsp),%rsi
  4024a4:	89 ef                	mov    %ebp,%edi
  4024a6:	e8 d5 e9 ff ff       	callq  400e80 <connect@plt>
  4024ab:	85 c0                	test   %eax,%eax
  4024ad:	79 59                	jns    402508 <submitr+0x1d4>
  4024af:	48 b8 45 72 72 6f 72 	movabs $0x55203a726f727245,%rax
  4024b6:	3a 20 55 
  4024b9:	48 89 03             	mov    %rax,(%rbx)
  4024bc:	48 b8 6e 61 62 6c 65 	movabs $0x6f7420656c62616e,%rax
  4024c3:	20 74 6f 
  4024c6:	48 89 43 08          	mov    %rax,0x8(%rbx)
  4024ca:	48 b8 20 63 6f 6e 6e 	movabs $0x7463656e6e6f6320,%rax
  4024d1:	65 63 74 
  4024d4:	48 89 43 10          	mov    %rax,0x10(%rbx)
  4024d8:	48 b8 20 74 6f 20 74 	movabs $0x20656874206f7420,%rax
  4024df:	68 65 20 
  4024e2:	48 89 43 18          	mov    %rax,0x18(%rbx)
  4024e6:	c7 43 20 73 65 72 76 	movl   $0x76726573,0x20(%rbx)
  4024ed:	66 c7 43 24 65 72    	movw   $0x7265,0x24(%rbx)
  4024f3:	c6 43 26 00          	movb   $0x0,0x26(%rbx)
  4024f7:	89 ef                	mov    %ebp,%edi
  4024f9:	e8 42 e8 ff ff       	callq  400d40 <close@plt>
  4024fe:	b8 ff ff ff ff       	mov    $0xffffffff,%eax
  402503:	e9 61 05 00 00       	jmpq   402a69 <submitr+0x735>
  402508:	48 c7 c2 ff ff ff ff 	mov    $0xffffffffffffffff,%rdx
  40250f:	4c 89 ef             	mov    %r13,%rdi
  402512:	b8 00 00 00 00       	mov    $0x0,%eax
  402517:	48 89 d1             	mov    %rdx,%rcx
  40251a:	f2 ae                	repnz scas %es:(%rdi),%al
  40251c:	48 f7 d1             	not    %rcx
  40251f:	48 89 ce             	mov    %rcx,%rsi
  402522:	4c 89 ff             	mov    %r15,%rdi
  402525:	48 89 d1             	mov    %rdx,%rcx
  402528:	f2 ae                	repnz scas %es:(%rdi),%al
  40252a:	48 f7 d1             	not    %rcx
  40252d:	49 89 c8             	mov    %rcx,%r8
  402530:	4c 89 f7             	mov    %r14,%rdi
  402533:	48 89 d1             	mov    %rdx,%rcx
  402536:	f2 ae                	repnz scas %es:(%rdi),%al
  402538:	49 29 c8             	sub    %rcx,%r8
  40253b:	48 8b 7c 24 18       	mov    0x18(%rsp),%rdi
  402540:	48 89 d1             	mov    %rdx,%rcx
  402543:	f2 ae                	repnz scas %es:(%rdi),%al
  402545:	49 29 c8             	sub    %rcx,%r8
  402548:	48 8d 44 76 fd       	lea    -0x3(%rsi,%rsi,2),%rax
  40254d:	49 8d 44 00 7b       	lea    0x7b(%r8,%rax,1),%rax
  402552:	48 3d 00 20 00 00    	cmp    $0x2000,%rax
  402558:	76 72                	jbe    4025cc <submitr+0x298>
  40255a:	48 b8 45 72 72 6f 72 	movabs $0x52203a726f727245,%rax
  402561:	3a 20 52 
  402564:	48 89 03             	mov    %rax,(%rbx)
  402567:	48 b8 65 73 75 6c 74 	movabs $0x747320746c757365,%rax
  40256e:	20 73 74 
  402571:	48 89 43 08          	mov    %rax,0x8(%rbx)
  402575:	48 b8 72 69 6e 67 20 	movabs $0x6f6f7420676e6972,%rax
  40257c:	74 6f 6f 
  40257f:	48 89 43 10          	mov    %rax,0x10(%rbx)
  402583:	48 b8 20 6c 61 72 67 	movabs $0x202e656772616c20,%rax
  40258a:	65 2e 20 
  40258d:	48 89 43 18          	mov    %rax,0x18(%rbx)
  402591:	48 b8 49 6e 63 72 65 	movabs $0x6573616572636e49,%rax
  402598:	61 73 65 
  40259b:	48 89 43 20          	mov    %rax,0x20(%rbx)
  40259f:	48 b8 20 53 55 42 4d 	movabs $0x5254494d42555320,%rax
  4025a6:	49 54 52 
  4025a9:	48 89 43 28          	mov    %rax,0x28(%rbx)
  4025ad:	48 b8 5f 4d 41 58 42 	movabs $0x46554258414d5f,%rax
  4025b4:	55 46 00 
  4025b7:	48 89 43 30          	mov    %rax,0x30(%rbx)
  4025bb:	89 ef                	mov    %ebp,%edi
  4025bd:	e8 7e e7 ff ff       	callq  400d40 <close@plt>
  4025c2:	b8 ff ff ff ff       	mov    $0xffffffff,%eax
  4025c7:	e9 9d 04 00 00       	jmpq   402a69 <submitr+0x735>
  4025cc:	48 8d b4 24 40 20 00 	lea    0x2040(%rsp),%rsi
  4025d3:	00 
  4025d4:	b9 00 04 00 00       	mov    $0x400,%ecx
  4025d9:	b8 00 00 00 00       	mov    $0x0,%eax
  4025de:	48 89 f7             	mov    %rsi,%rdi
  4025e1:	f3 48 ab             	rep stos %rax,%es:(%rdi)
  4025e4:	4c 89 ef             	mov    %r13,%rdi
  4025e7:	e8 3b fc ff ff       	callq  402227 <urlencode>
  4025ec:	85 c0                	test   %eax,%eax
  4025ee:	0f 89 8a 00 00 00    	jns    40267e <submitr+0x34a>
  4025f4:	48 b8 45 72 72 6f 72 	movabs $0x52203a726f727245,%rax
  4025fb:	3a 20 52 
  4025fe:	48 89 03             	mov    %rax,(%rbx)
  402601:	48 b8 65 73 75 6c 74 	movabs $0x747320746c757365,%rax
  402608:	20 73 74 
  40260b:	48 89 43 08          	mov    %rax,0x8(%rbx)
  40260f:	48 b8 72 69 6e 67 20 	movabs $0x6e6f6320676e6972,%rax
  402616:	63 6f 6e 
  402619:	48 89 43 10          	mov    %rax,0x10(%rbx)
  40261d:	48 b8 74 61 69 6e 73 	movabs $0x6e6120736e696174,%rax
  402624:	20 61 6e 
  402627:	48 89 43 18          	mov    %rax,0x18(%rbx)
  40262b:	48 b8 20 69 6c 6c 65 	movabs $0x6c6167656c6c6920,%rax
  402632:	67 61 6c 
  402635:	48 89 43 20          	mov    %rax,0x20(%rbx)
  402639:	48 b8 20 6f 72 20 75 	movabs $0x72706e7520726f20,%rax
  402640:	6e 70 72 
  402643:	48 89 43 28          	mov    %rax,0x28(%rbx)
  402647:	48 b8 69 6e 74 61 62 	movabs $0x20656c6261746e69,%rax
  40264e:	6c 65 20 
  402651:	48 89 43 30          	mov    %rax,0x30(%rbx)
  402655:	48 b8 63 68 61 72 61 	movabs $0x6574636172616863,%rax
  40265c:	63 74 65 
  40265f:	48 89 43 38          	mov    %rax,0x38(%rbx)
  402663:	66 c7 43 40 72 2e    	movw   $0x2e72,0x40(%rbx)
  402669:	c6 43 42 00          	movb   $0x0,0x42(%rbx)
  40266d:	89 ef                	mov    %ebp,%edi
  40266f:	e8 cc e6 ff ff       	callq  400d40 <close@plt>
  402674:	b8 ff ff ff ff       	mov    $0xffffffff,%eax
  402679:	e9 eb 03 00 00       	jmpq   402a69 <submitr+0x735>
  40267e:	4c 89 64 24 08       	mov    %r12,0x8(%rsp)
  402683:	48 8d 84 24 40 20 00 	lea    0x2040(%rsp),%rax
  40268a:	00 
  40268b:	48 89 04 24          	mov    %rax,(%rsp)
  40268f:	4d 89 f9             	mov    %r15,%r9
  402692:	4d 89 f0             	mov    %r14,%r8
  402695:	b9 68 35 40 00       	mov    $0x403568,%ecx
  40269a:	ba 00 20 00 00       	mov    $0x2000,%edx
  40269f:	be 01 00 00 00       	mov    $0x1,%esi
  4026a4:	48 8d 7c 24 40       	lea    0x40(%rsp),%rdi
  4026a9:	b8 00 00 00 00       	mov    $0x0,%eax
  4026ae:	e8 ed e7 ff ff       	callq  400ea0 <__sprintf_chk@plt>
  4026b3:	48 8d 7c 24 40       	lea    0x40(%rsp),%rdi
  4026b8:	b8 00 00 00 00       	mov    $0x0,%eax
  4026bd:	48 c7 c1 ff ff ff ff 	mov    $0xffffffffffffffff,%rcx
  4026c4:	f2 ae                	repnz scas %es:(%rdi),%al
  4026c6:	48 f7 d1             	not    %rcx
  4026c9:	48 8d 51 ff          	lea    -0x1(%rcx),%rdx
  4026cd:	48 8d 74 24 40       	lea    0x40(%rsp),%rsi
  4026d2:	89 ef                	mov    %ebp,%edi
  4026d4:	e8 e7 f9 ff ff       	callq  4020c0 <rio_writen>
  4026d9:	48 85 c0             	test   %rax,%rax
  4026dc:	79 6e                	jns    40274c <submitr+0x418>
  4026de:	48 b8 45 72 72 6f 72 	movabs $0x43203a726f727245,%rax
  4026e5:	3a 20 43 
  4026e8:	48 89 03             	mov    %rax,(%rbx)
  4026eb:	48 b8 6c 69 65 6e 74 	movabs $0x6e7520746e65696c,%rax
  4026f2:	20 75 6e 
  4026f5:	48 89 43 08          	mov    %rax,0x8(%rbx)
  4026f9:	48 b8 61 62 6c 65 20 	movabs $0x206f7420656c6261,%rax
  402700:	74 6f 20 
  402703:	48 89 43 10          	mov    %rax,0x10(%rbx)
  402707:	48 b8 77 72 69 74 65 	movabs $0x6f74206574697277,%rax
  40270e:	20 74 6f 
  402711:	48 89 43 18          	mov    %rax,0x18(%rbx)
  402715:	48 b8 20 74 68 65 20 	movabs $0x7365722065687420,%rax
  40271c:	72 65 73 
  40271f:	48 89 43 20          	mov    %rax,0x20(%rbx)
  402723:	48 b8 75 6c 74 20 73 	movabs $0x7672657320746c75,%rax
  40272a:	65 72 76 
  40272d:	48 89 43 28          	mov    %rax,0x28(%rbx)
  402731:	66 c7 43 30 65 72    	movw   $0x7265,0x30(%rbx)
  402737:	c6 43 32 00          	movb   $0x0,0x32(%rbx)
  40273b:	89 ef                	mov    %ebp,%edi
  40273d:	e8 fe e5 ff ff       	callq  400d40 <close@plt>
  402742:	b8 ff ff ff ff       	mov    $0xffffffff,%eax
  402747:	e9 1d 03 00 00       	jmpq   402a69 <submitr+0x735>
  40274c:	89 ee                	mov    %ebp,%esi
  40274e:	48 8d bc 24 40 80 00 	lea    0x8040(%rsp),%rdi
  402755:	00 
  402756:	e8 25 f9 ff ff       	callq  402080 <rio_readinitb>
  40275b:	ba 00 20 00 00       	mov    $0x2000,%edx
  402760:	48 8d 74 24 40       	lea    0x40(%rsp),%rsi
  402765:	48 8d bc 24 40 80 00 	lea    0x8040(%rsp),%rdi
  40276c:	00 
  40276d:	e8 31 fa ff ff       	callq  4021a3 <rio_readlineb>
  402772:	48 85 c0             	test   %rax,%rax
  402775:	7f 7d                	jg     4027f4 <submitr+0x4c0>
  402777:	48 b8 45 72 72 6f 72 	movabs $0x43203a726f727245,%rax
  40277e:	3a 20 43 
  402781:	48 89 03             	mov    %rax,(%rbx)
  402784:	48 b8 6c 69 65 6e 74 	movabs $0x6e7520746e65696c,%rax
  40278b:	20 75 6e 
  40278e:	48 89 43 08          	mov    %rax,0x8(%rbx)
  402792:	48 b8 61 62 6c 65 20 	movabs $0x206f7420656c6261,%rax
  402799:	74 6f 20 
  40279c:	48 89 43 10          	mov    %rax,0x10(%rbx)
  4027a0:	48 b8 72 65 61 64 20 	movabs $0x7269662064616572,%rax
  4027a7:	66 69 72 
  4027aa:	48 89 43 18          	mov    %rax,0x18(%rbx)
  4027ae:	48 b8 73 74 20 68 65 	movabs $0x6564616568207473,%rax
  4027b5:	61 64 65 
  4027b8:	48 89 43 20          	mov    %rax,0x20(%rbx)
  4027bc:	48 b8 72 20 66 72 6f 	movabs $0x72206d6f72662072,%rax
  4027c3:	6d 20 72 
  4027c6:	48 89 43 28          	mov    %rax,0x28(%rbx)
  4027ca:	48 b8 65 73 75 6c 74 	movabs $0x657320746c757365,%rax
  4027d1:	20 73 65 
  4027d4:	48 89 43 30          	mov    %rax,0x30(%rbx)
  4027d8:	c7 43 38 72 76 65 72 	movl   $0x72657672,0x38(%rbx)
  4027df:	c6 43 3c 00          	movb   $0x0,0x3c(%rbx)
  4027e3:	89 ef                	mov    %ebp,%edi
  4027e5:	e8 56 e5 ff ff       	callq  400d40 <close@plt>
  4027ea:	b8 ff ff ff ff       	mov    $0xffffffff,%eax
  4027ef:	e9 75 02 00 00       	jmpq   402a69 <submitr+0x735>
  4027f4:	4c 8d 84 24 40 60 00 	lea    0x6040(%rsp),%r8
  4027fb:	00 
  4027fc:	48 8d 4c 24 2c       	lea    0x2c(%rsp),%rcx
  402801:	48 8d 94 24 40 40 00 	lea    0x4040(%rsp),%rdx
  402808:	00 
  402809:	be df 35 40 00       	mov    $0x4035df,%esi
  40280e:	48 8d 7c 24 40       	lea    0x40(%rsp),%rdi
  402813:	b8 00 00 00 00       	mov    $0x0,%eax
  402818:	e8 e3 e5 ff ff       	callq  400e00 <__isoc99_sscanf@plt>
  40281d:	41 bc 0d 00 00 00    	mov    $0xd,%r12d
  402823:	41 bd 0a 00 00 00    	mov    $0xa,%r13d
  402829:	e9 95 00 00 00       	jmpq   4028c3 <submitr+0x58f>
  40282e:	ba 00 20 00 00       	mov    $0x2000,%edx
  402833:	48 8d 74 24 40       	lea    0x40(%rsp),%rsi
  402838:	48 8d bc 24 40 80 00 	lea    0x8040(%rsp),%rdi
  40283f:	00 
  402840:	e8 5e f9 ff ff       	callq  4021a3 <rio_readlineb>
  402845:	48 85 c0             	test   %rax,%rax
  402848:	7f 79                	jg     4028c3 <submitr+0x58f>
  40284a:	48 b8 45 72 72 6f 72 	movabs $0x43203a726f727245,%rax
  402851:	3a 20 43 
  402854:	48 89 03             	mov    %rax,(%rbx)
  402857:	48 b8 6c 69 65 6e 74 	movabs $0x6e7520746e65696c,%rax
  40285e:	20 75 6e 
  402861:	48 89 43 08          	mov    %rax,0x8(%rbx)
  402865:	48 b8 61 62 6c 65 20 	movabs $0x206f7420656c6261,%rax
  40286c:	74 6f 20 
  40286f:	48 89 43 10          	mov    %rax,0x10(%rbx)
  402873:	48 b8 72 65 61 64 20 	movabs $0x6165682064616572,%rax
  40287a:	68 65 61 
  40287d:	48 89 43 18          	mov    %rax,0x18(%rbx)
  402881:	48 b8 64 65 72 73 20 	movabs $0x6f72662073726564,%rax
  402888:	66 72 6f 
  40288b:	48 89 43 20          	mov    %rax,0x20(%rbx)
  40288f:	48 b8 6d 20 74 68 65 	movabs $0x657220656874206d,%rax
  402896:	20 72 65 
  402899:	48 89 43 28          	mov    %rax,0x28(%rbx)
  40289d:	48 b8 73 75 6c 74 20 	movabs $0x72657320746c7573,%rax
  4028a4:	73 65 72 
  4028a7:	48 89 43 30          	mov    %rax,0x30(%rbx)
  4028ab:	c7 43 38 76 65 72 00 	movl   $0x726576,0x38(%rbx)
  4028b2:	89 ef                	mov    %ebp,%edi
  4028b4:	e8 87 e4 ff ff       	callq  400d40 <close@plt>
  4028b9:	b8 ff ff ff ff       	mov    $0xffffffff,%eax
  4028be:	e9 a6 01 00 00       	jmpq   402a69 <submitr+0x735>
  4028c3:	0f b6 44 24 40       	movzbl 0x40(%rsp),%eax
  4028c8:	44 89 e6             	mov    %r12d,%esi
  4028cb:	29 c6                	sub    %eax,%esi
  4028cd:	89 f0                	mov    %esi,%eax
  4028cf:	75 15                	jne    4028e6 <submitr+0x5b2>
  4028d1:	0f b6 44 24 41       	movzbl 0x41(%rsp),%eax
  4028d6:	44 89 ea             	mov    %r13d,%edx
  4028d9:	29 c2                	sub    %eax,%edx
  4028db:	89 d0                	mov    %edx,%eax
  4028dd:	75 07                	jne    4028e6 <submitr+0x5b2>
  4028df:	0f b6 44 24 42       	movzbl 0x42(%rsp),%eax
  4028e4:	f7 d8                	neg    %eax
  4028e6:	85 c0                	test   %eax,%eax
  4028e8:	0f 85 40 ff ff ff    	jne    40282e <submitr+0x4fa>
  4028ee:	ba 00 20 00 00       	mov    $0x2000,%edx
  4028f3:	48 8d 74 24 40       	lea    0x40(%rsp),%rsi
  4028f8:	48 8d bc 24 40 80 00 	lea    0x8040(%rsp),%rdi
  4028ff:	00 
  402900:	e8 9e f8 ff ff       	callq  4021a3 <rio_readlineb>
  402905:	48 85 c0             	test   %rax,%rax
  402908:	0f 8f 83 00 00 00    	jg     402991 <submitr+0x65d>
  40290e:	48 b8 45 72 72 6f 72 	movabs $0x43203a726f727245,%rax
  402915:	3a 20 43 
  402918:	48 89 03             	mov    %rax,(%rbx)
  40291b:	48 b8 6c 69 65 6e 74 	movabs $0x6e7520746e65696c,%rax
  402922:	20 75 6e 
  402925:	48 89 43 08          	mov    %rax,0x8(%rbx)
  402929:	48 b8 61 62 6c 65 20 	movabs $0x206f7420656c6261,%rax
  402930:	74 6f 20 
  402933:	48 89 43 10          	mov    %rax,0x10(%rbx)
  402937:	48 b8 72 65 61 64 20 	movabs $0x6174732064616572,%rax
  40293e:	73 74 61 
  402941:	48 89 43 18          	mov    %rax,0x18(%rbx)
  402945:	48 b8 74 75 73 20 6d 	movabs $0x7373656d20737574,%rax
  40294c:	65 73 73 
  40294f:	48 89 43 20          	mov    %rax,0x20(%rbx)
  402953:	48 b8 61 67 65 20 66 	movabs $0x6d6f726620656761,%rax
  40295a:	72 6f 6d 
  40295d:	48 89 43 28          	mov    %rax,0x28(%rbx)
  402961:	48 b8 20 72 65 73 75 	movabs $0x20746c7573657220,%rax
  402968:	6c 74 20 
  40296b:	48 89 43 30          	mov    %rax,0x30(%rbx)
  40296f:	c7 43 38 73 65 72 76 	movl   $0x76726573,0x38(%rbx)
  402976:	66 c7 43 3c 65 72    	movw   $0x7265,0x3c(%rbx)
  40297c:	c6 43 3e 00          	movb   $0x0,0x3e(%rbx)
  402980:	89 ef                	mov    %ebp,%edi
  402982:	e8 b9 e3 ff ff       	callq  400d40 <close@plt>
  402987:	b8 ff ff ff ff       	mov    $0xffffffff,%eax
  40298c:	e9 d8 00 00 00       	jmpq   402a69 <submitr+0x735>
  402991:	44 8b 44 24 2c       	mov    0x2c(%rsp),%r8d
  402996:	41 81 f8 c8 00 00 00 	cmp    $0xc8,%r8d
  40299d:	74 37                	je     4029d6 <submitr+0x6a2>
  40299f:	4c 8d 8c 24 40 60 00 	lea    0x6040(%rsp),%r9
  4029a6:	00 
  4029a7:	b9 a8 35 40 00       	mov    $0x4035a8,%ecx
  4029ac:	48 c7 c2 ff ff ff ff 	mov    $0xffffffffffffffff,%rdx
  4029b3:	be 01 00 00 00       	mov    $0x1,%esi
  4029b8:	48 89 df             	mov    %rbx,%rdi
  4029bb:	b8 00 00 00 00       	mov    $0x0,%eax
  4029c0:	e8 db e4 ff ff       	callq  400ea0 <__sprintf_chk@plt>
  4029c5:	89 ef                	mov    %ebp,%edi
  4029c7:	e8 74 e3 ff ff       	callq  400d40 <close@plt>
  4029cc:	b8 ff ff ff ff       	mov    $0xffffffff,%eax
  4029d1:	e9 93 00 00 00       	jmpq   402a69 <submitr+0x735>
  4029d6:	48 8d 74 24 40       	lea    0x40(%rsp),%rsi
  4029db:	48 89 df             	mov    %rbx,%rdi
  4029de:	e8 ed e2 ff ff       	callq  400cd0 <strcpy@plt>
  4029e3:	89 ef                	mov    %ebp,%edi
  4029e5:	e8 56 e3 ff ff       	callq  400d40 <close@plt>
  4029ea:	0f b6 03             	movzbl (%rbx),%eax
  4029ed:	ba 4f 00 00 00       	mov    $0x4f,%edx
  4029f2:	29 c2                	sub    %eax,%edx
  4029f4:	75 22                	jne    402a18 <submitr+0x6e4>
  4029f6:	0f b6 4b 01          	movzbl 0x1(%rbx),%ecx
  4029fa:	b8 4b 00 00 00       	mov    $0x4b,%eax
  4029ff:	29 c8                	sub    %ecx,%eax
  402a01:	75 17                	jne    402a1a <submitr+0x6e6>
  402a03:	0f b6 4b 02          	movzbl 0x2(%rbx),%ecx
  402a07:	b8 0a 00 00 00       	mov    $0xa,%eax
  402a0c:	29 c8                	sub    %ecx,%eax
  402a0e:	75 0a                	jne    402a1a <submitr+0x6e6>
  402a10:	0f b6 43 03          	movzbl 0x3(%rbx),%eax
  402a14:	f7 d8                	neg    %eax
  402a16:	eb 02                	jmp    402a1a <submitr+0x6e6>
  402a18:	89 d0                	mov    %edx,%eax
  402a1a:	85 c0                	test   %eax,%eax
  402a1c:	74 38                	je     402a56 <submitr+0x722>
  402a1e:	bf f0 35 40 00       	mov    $0x4035f0,%edi
  402a23:	b9 05 00 00 00       	mov    $0x5,%ecx
  402a28:	48 89 de             	mov    %rbx,%rsi
  402a2b:	f3 a6                	repz cmpsb %es:(%rdi),%ds:(%rsi)
  402a2d:	0f 97 c1             	seta   %cl
  402a30:	0f 92 c0             	setb   %al
  402a33:	38 c1                	cmp    %al,%cl
  402a35:	74 26                	je     402a5d <submitr+0x729>
  402a37:	85 d2                	test   %edx,%edx
  402a39:	75 10                	jne    402a4b <submitr+0x717>
  402a3b:	0f b6 43 01          	movzbl 0x1(%rbx),%eax
  402a3f:	b2 4b                	mov    $0x4b,%dl
  402a41:	29 c2                	sub    %eax,%edx
  402a43:	75 06                	jne    402a4b <submitr+0x717>
  402a45:	0f b6 53 02          	movzbl 0x2(%rbx),%edx
  402a49:	f7 da                	neg    %edx
  402a4b:	85 d2                	test   %edx,%edx
  402a4d:	75 15                	jne    402a64 <submitr+0x730>
  402a4f:	b8 00 00 00 00       	mov    $0x0,%eax
  402a54:	eb 13                	jmp    402a69 <submitr+0x735>
  402a56:	b8 00 00 00 00       	mov    $0x0,%eax
  402a5b:	eb 0c                	jmp    402a69 <submitr+0x735>
  402a5d:	b8 00 00 00 00       	mov    $0x0,%eax
  402a62:	eb 05                	jmp    402a69 <submitr+0x735>
  402a64:	b8 ff ff ff ff       	mov    $0xffffffff,%eax
  402a69:	48 8b 9c 24 58 a0 00 	mov    0xa058(%rsp),%rbx
  402a70:	00 
  402a71:	64 48 33 1c 25 28 00 	xor    %fs:0x28,%rbx
  402a78:	00 00 
  402a7a:	74 05                	je     402a81 <submitr+0x74d>
  402a7c:	e8 7f e2 ff ff       	callq  400d00 <__stack_chk_fail@plt>
  402a81:	48 81 c4 68 a0 00 00 	add    $0xa068,%rsp
  402a88:	5b                   	pop    %rbx
  402a89:	5d                   	pop    %rbp
  402a8a:	41 5c                	pop    %r12
  402a8c:	41 5d                	pop    %r13
  402a8e:	41 5e                	pop    %r14
  402a90:	41 5f                	pop    %r15
  402a92:	c3                   	retq   

0000000000402a93 <init_timeout>:
  402a93:	53                   	push   %rbx
  402a94:	89 fb                	mov    %edi,%ebx
  402a96:	85 ff                	test   %edi,%edi
  402a98:	74 1f                	je     402ab9 <init_timeout+0x26>
  402a9a:	85 ff                	test   %edi,%edi
  402a9c:	79 05                	jns    402aa3 <init_timeout+0x10>
  402a9e:	bb 00 00 00 00       	mov    $0x0,%ebx
  402aa3:	be 92 20 40 00       	mov    $0x402092,%esi
  402aa8:	bf 0e 00 00 00       	mov    $0xe,%edi
  402aad:	e8 be e2 ff ff       	callq  400d70 <signal@plt>
  402ab2:	89 df                	mov    %ebx,%edi
  402ab4:	e8 77 e2 ff ff       	callq  400d30 <alarm@plt>
  402ab9:	5b                   	pop    %rbx
  402aba:	c3                   	retq   

0000000000402abb <init_driver>:
  402abb:	55                   	push   %rbp
  402abc:	53                   	push   %rbx
  402abd:	48 83 ec 28          	sub    $0x28,%rsp
  402ac1:	48 89 fd             	mov    %rdi,%rbp
  402ac4:	64 48 8b 04 25 28 00 	mov    %fs:0x28,%rax
  402acb:	00 00 
  402acd:	48 89 44 24 18       	mov    %rax,0x18(%rsp)
  402ad2:	31 c0                	xor    %eax,%eax
  402ad4:	be 01 00 00 00       	mov    $0x1,%esi
  402ad9:	bf 0d 00 00 00       	mov    $0xd,%edi
  402ade:	e8 8d e2 ff ff       	callq  400d70 <signal@plt>
  402ae3:	be 01 00 00 00       	mov    $0x1,%esi
  402ae8:	bf 1d 00 00 00       	mov    $0x1d,%edi
  402aed:	e8 7e e2 ff ff       	callq  400d70 <signal@plt>
  402af2:	be 01 00 00 00       	mov    $0x1,%esi
  402af7:	bf 1d 00 00 00       	mov    $0x1d,%edi
  402afc:	e8 6f e2 ff ff       	callq  400d70 <signal@plt>
  402b01:	ba 00 00 00 00       	mov    $0x0,%edx
  402b06:	be 01 00 00 00       	mov    $0x1,%esi
  402b0b:	bf 02 00 00 00       	mov    $0x2,%edi
  402b10:	e8 9b e3 ff ff       	callq  400eb0 <socket@plt>
  402b15:	89 c3                	mov    %eax,%ebx
  402b17:	85 c0                	test   %eax,%eax
  402b19:	79 4f                	jns    402b6a <init_driver+0xaf>
  402b1b:	48 b8 45 72 72 6f 72 	movabs $0x43203a726f727245,%rax
  402b22:	3a 20 43 
  402b25:	48 89 45 00          	mov    %rax,0x0(%rbp)
  402b29:	48 b8 6c 69 65 6e 74 	movabs $0x6e7520746e65696c,%rax
  402b30:	20 75 6e 
  402b33:	48 89 45 08          	mov    %rax,0x8(%rbp)
  402b37:	48 b8 61 62 6c 65 20 	movabs $0x206f7420656c6261,%rax
  402b3e:	74 6f 20 
  402b41:	48 89 45 10          	mov    %rax,0x10(%rbp)
  402b45:	48 b8 63 72 65 61 74 	movabs $0x7320657461657263,%rax
  402b4c:	65 20 73 
  402b4f:	48 89 45 18          	mov    %rax,0x18(%rbp)
  402b53:	c7 45 20 6f 63 6b 65 	movl   $0x656b636f,0x20(%rbp)
  402b5a:	66 c7 45 24 74 00    	movw   $0x74,0x24(%rbp)
  402b60:	b8 ff ff ff ff       	mov    $0xffffffff,%eax
  402b65:	e9 28 01 00 00       	jmpq   402c92 <init_driver+0x1d7>
  402b6a:	bf f5 35 40 00       	mov    $0x4035f5,%edi
  402b6f:	e8 0c e2 ff ff       	callq  400d80 <gethostbyname@plt>
  402b74:	48 85 c0             	test   %rax,%rax
  402b77:	75 68                	jne    402be1 <init_driver+0x126>
  402b79:	48 b8 45 72 72 6f 72 	movabs $0x44203a726f727245,%rax
  402b80:	3a 20 44 
  402b83:	48 89 45 00          	mov    %rax,0x0(%rbp)
  402b87:	48 b8 4e 53 20 69 73 	movabs $0x6e7520736920534e,%rax
  402b8e:	20 75 6e 
  402b91:	48 89 45 08          	mov    %rax,0x8(%rbp)
  402b95:	48 b8 61 62 6c 65 20 	movabs $0x206f7420656c6261,%rax
  402b9c:	74 6f 20 
  402b9f:	48 89 45 10          	mov    %rax,0x10(%rbp)
  402ba3:	48 b8 72 65 73 6f 6c 	movabs $0x2065766c6f736572,%rax
  402baa:	76 65 20 
  402bad:	48 89 45 18          	mov    %rax,0x18(%rbp)
  402bb1:	48 b8 73 65 72 76 65 	movabs $0x6120726576726573,%rax
  402bb8:	72 20 61 
  402bbb:	48 89 45 20          	mov    %rax,0x20(%rbp)
  402bbf:	c7 45 28 64 64 72 65 	movl   $0x65726464,0x28(%rbp)
  402bc6:	66 c7 45 2c 73 73    	movw   $0x7373,0x2c(%rbp)
  402bcc:	c6 45 2e 00          	movb   $0x0,0x2e(%rbp)
  402bd0:	89 df                	mov    %ebx,%edi
  402bd2:	e8 69 e1 ff ff       	callq  400d40 <close@plt>
  402bd7:	b8 ff ff ff ff       	mov    $0xffffffff,%eax
  402bdc:	e9 b1 00 00 00       	jmpq   402c92 <init_driver+0x1d7>
  402be1:	48 c7 04 24 00 00 00 	movq   $0x0,(%rsp)
  402be8:	00 
  402be9:	48 c7 44 24 08 00 00 	movq   $0x0,0x8(%rsp)
  402bf0:	00 00 
  402bf2:	66 c7 04 24 02 00    	movw   $0x2,(%rsp)
  402bf8:	48 63 50 14          	movslq 0x14(%rax),%rdx
  402bfc:	48 8b 40 18          	mov    0x18(%rax),%rax
  402c00:	48 8b 30             	mov    (%rax),%rsi
  402c03:	48 8d 7c 24 04       	lea    0x4(%rsp),%rdi
  402c08:	b9 0c 00 00 00       	mov    $0xc,%ecx
  402c0d:	e8 7e e1 ff ff       	callq  400d90 <__memmove_chk@plt>
  402c12:	66 c7 44 24 02 3c 9a 	movw   $0x9a3c,0x2(%rsp)
  402c19:	ba 10 00 00 00       	mov    $0x10,%edx
  402c1e:	48 89 e6             	mov    %rsp,%rsi
  402c21:	89 df                	mov    %ebx,%edi
  402c23:	e8 58 e2 ff ff       	callq  400e80 <connect@plt>
  402c28:	85 c0                	test   %eax,%eax
  402c2a:	79 50                	jns    402c7c <init_driver+0x1c1>
  402c2c:	48 b8 45 72 72 6f 72 	movabs $0x55203a726f727245,%rax
  402c33:	3a 20 55 
  402c36:	48 89 45 00          	mov    %rax,0x0(%rbp)
  402c3a:	48 b8 6e 61 62 6c 65 	movabs $0x6f7420656c62616e,%rax
  402c41:	20 74 6f 
  402c44:	48 89 45 08          	mov    %rax,0x8(%rbp)
  402c48:	48 b8 20 63 6f 6e 6e 	movabs $0x7463656e6e6f6320,%rax
  402c4f:	65 63 74 
  402c52:	48 89 45 10          	mov    %rax,0x10(%rbp)
  402c56:	48 b8 20 74 6f 20 73 	movabs $0x76726573206f7420,%rax
  402c5d:	65 72 76 
  402c60:	48 89 45 18          	mov    %rax,0x18(%rbp)
  402c64:	66 c7 45 20 65 72    	movw   $0x7265,0x20(%rbp)
  402c6a:	c6 45 22 00          	movb   $0x0,0x22(%rbp)
  402c6e:	89 df                	mov    %ebx,%edi
  402c70:	e8 cb e0 ff ff       	callq  400d40 <close@plt>
  402c75:	b8 ff ff ff ff       	mov    $0xffffffff,%eax
  402c7a:	eb 16                	jmp    402c92 <init_driver+0x1d7>
  402c7c:	89 df                	mov    %ebx,%edi
  402c7e:	e8 bd e0 ff ff       	callq  400d40 <close@plt>
  402c83:	66 c7 45 00 4f 4b    	movw   $0x4b4f,0x0(%rbp)
  402c89:	c6 45 02 00          	movb   $0x0,0x2(%rbp)
  402c8d:	b8 00 00 00 00       	mov    $0x0,%eax
  402c92:	48 8b 4c 24 18       	mov    0x18(%rsp),%rcx
  402c97:	64 48 33 0c 25 28 00 	xor    %fs:0x28,%rcx
  402c9e:	00 00 
  402ca0:	74 05                	je     402ca7 <init_driver+0x1ec>
  402ca2:	e8 59 e0 ff ff       	callq  400d00 <__stack_chk_fail@plt>
  402ca7:	48 83 c4 28          	add    $0x28,%rsp
  402cab:	5b                   	pop    %rbx
  402cac:	5d                   	pop    %rbp
  402cad:	c3                   	retq   

0000000000402cae <driver_post>:
  402cae:	53                   	push   %rbx
  402caf:	48 83 ec 10          	sub    $0x10,%rsp
  402cb3:	4c 89 cb             	mov    %r9,%rbx
  402cb6:	45 85 c0             	test   %r8d,%r8d
  402cb9:	74 27                	je     402ce2 <driver_post+0x34>
  402cbb:	48 89 ca             	mov    %rcx,%rdx
  402cbe:	be 04 36 40 00       	mov    $0x403604,%esi
  402cc3:	bf 01 00 00 00       	mov    $0x1,%edi
  402cc8:	b8 00 00 00 00       	mov    $0x0,%eax
  402ccd:	e8 4e e1 ff ff       	callq  400e20 <__printf_chk@plt>
  402cd2:	66 c7 03 4f 4b       	movw   $0x4b4f,(%rbx)
  402cd7:	c6 43 02 00          	movb   $0x0,0x2(%rbx)
  402cdb:	b8 00 00 00 00       	mov    $0x0,%eax
  402ce0:	eb 39                	jmp    402d1b <driver_post+0x6d>
  402ce2:	48 85 ff             	test   %rdi,%rdi
  402ce5:	74 26                	je     402d0d <driver_post+0x5f>
  402ce7:	80 3f 00             	cmpb   $0x0,(%rdi)
  402cea:	74 21                	je     402d0d <driver_post+0x5f>
  402cec:	4c 89 0c 24          	mov    %r9,(%rsp)
  402cf0:	49 89 c9             	mov    %rcx,%r9
  402cf3:	49 89 d0             	mov    %rdx,%r8
  402cf6:	48 89 f9             	mov    %rdi,%rcx
  402cf9:	48 89 f2             	mov    %rsi,%rdx
  402cfc:	be 9a 3c 00 00       	mov    $0x3c9a,%esi
  402d01:	bf f5 35 40 00       	mov    $0x4035f5,%edi
  402d06:	e8 29 f6 ff ff       	callq  402334 <submitr>
  402d0b:	eb 0e                	jmp    402d1b <driver_post+0x6d>
  402d0d:	66 c7 03 4f 4b       	movw   $0x4b4f,(%rbx)
  402d12:	c6 43 02 00          	movb   $0x0,0x2(%rbx)
  402d16:	b8 00 00 00 00       	mov    $0x0,%eax
  402d1b:	48 83 c4 10          	add    $0x10,%rsp
  402d1f:	5b                   	pop    %rbx
  402d20:	c3                   	retq   

0000000000402d21 <check>:
  402d21:	89 f8                	mov    %edi,%eax
  402d23:	c1 e8 1c             	shr    $0x1c,%eax
  402d26:	85 c0                	test   %eax,%eax
  402d28:	74 1d                	je     402d47 <check+0x26>
  402d2a:	b9 00 00 00 00       	mov    $0x0,%ecx
  402d2f:	eb 0b                	jmp    402d3c <check+0x1b>
  402d31:	89 f8                	mov    %edi,%eax
  402d33:	d3 e8                	shr    %cl,%eax
  402d35:	3c 0a                	cmp    $0xa,%al
  402d37:	74 14                	je     402d4d <check+0x2c>
  402d39:	83 c1 08             	add    $0x8,%ecx
  402d3c:	83 f9 1f             	cmp    $0x1f,%ecx
  402d3f:	7e f0                	jle    402d31 <check+0x10>
  402d41:	b8 01 00 00 00       	mov    $0x1,%eax
  402d46:	c3                   	retq   
  402d47:	b8 00 00 00 00       	mov    $0x0,%eax
  402d4c:	c3                   	retq   
  402d4d:	b8 00 00 00 00       	mov    $0x0,%eax
  402d52:	c3                   	retq   

0000000000402d53 <gencookie>:
  402d53:	53                   	push   %rbx
  402d54:	83 c7 01             	add    $0x1,%edi
  402d57:	e8 54 df ff ff       	callq  400cb0 <srandom@plt>
  402d5c:	e8 7f e0 ff ff       	callq  400de0 <random@plt>
  402d61:	89 c3                	mov    %eax,%ebx
  402d63:	89 c7                	mov    %eax,%edi
  402d65:	e8 b7 ff ff ff       	callq  402d21 <check>
  402d6a:	85 c0                	test   %eax,%eax
  402d6c:	74 ee                	je     402d5c <gencookie+0x9>
  402d6e:	89 d8                	mov    %ebx,%eax
  402d70:	5b                   	pop    %rbx
  402d71:	c3                   	retq   
  402d72:	66 2e 0f 1f 84 00 00 	nopw   %cs:0x0(%rax,%rax,1)
  402d79:	00 00 00 
  402d7c:	0f 1f 40 00          	nopl   0x0(%rax)

0000000000402d80 <__libc_csu_init>:
  402d80:	41 57                	push   %r15
  402d82:	41 89 ff             	mov    %edi,%r15d
  402d85:	41 56                	push   %r14
  402d87:	49 89 f6             	mov    %rsi,%r14
  402d8a:	41 55                	push   %r13
  402d8c:	49 89 d5             	mov    %rdx,%r13
  402d8f:	41 54                	push   %r12
  402d91:	4c 8d 25 78 10 20 00 	lea    0x201078(%rip),%r12        # 603e10 <__frame_dummy_init_array_entry>
  402d98:	55                   	push   %rbp
  402d99:	48 8d 2d 78 10 20 00 	lea    0x201078(%rip),%rbp        # 603e18 <__init_array_end>
  402da0:	53                   	push   %rbx
  402da1:	4c 29 e5             	sub    %r12,%rbp
  402da4:	31 db                	xor    %ebx,%ebx
  402da6:	48 c1 fd 03          	sar    $0x3,%rbp
  402daa:	48 83 ec 08          	sub    $0x8,%rsp
  402dae:	e8 ad de ff ff       	callq  400c60 <_init>
  402db3:	48 85 ed             	test   %rbp,%rbp
  402db6:	74 1e                	je     402dd6 <__libc_csu_init+0x56>
  402db8:	0f 1f 84 00 00 00 00 	nopl   0x0(%rax,%rax,1)
  402dbf:	00 
  402dc0:	4c 89 ea             	mov    %r13,%rdx
  402dc3:	4c 89 f6             	mov    %r14,%rsi
  402dc6:	44 89 ff             	mov    %r15d,%edi
  402dc9:	41 ff 14 dc          	callq  *(%r12,%rbx,8)
  402dcd:	48 83 c3 01          	add    $0x1,%rbx
  402dd1:	48 39 eb             	cmp    %rbp,%rbx
  402dd4:	75 ea                	jne    402dc0 <__libc_csu_init+0x40>
  402dd6:	48 83 c4 08          	add    $0x8,%rsp
  402dda:	5b                   	pop    %rbx
  402ddb:	5d                   	pop    %rbp
  402ddc:	41 5c                	pop    %r12
  402dde:	41 5d                	pop    %r13
  402de0:	41 5e                	pop    %r14
  402de2:	41 5f                	pop    %r15
  402de4:	c3                   	retq   
  402de5:	66 66 2e 0f 1f 84 00 	data32 nopw %cs:0x0(%rax,%rax,1)
  402dec:	00 00 00 00 

0000000000402df0 <__libc_csu_fini>:
  402df0:	f3 c3                	repz retq 

Disassembly of section .fini:

0000000000402df4 <_fini>:
  402df4:	48 83 ec 08          	sub    $0x8,%rsp
  402df8:	48 83 c4 08          	add    $0x8,%rsp
  402dfc:	c3                   	retq   
